Component: ARM Compiler 5.06 update 7 (build 960) Tool: armlink [4d3601]

==============================================================================

Section Cross References

    main.o(i.main) refers to rt_cmsis.o(i.osKernelInitialize) for osKernelInitialize
    main.o(i.main) refers to thread.o(i.Init_Thread) for Init_Thread
    main.o(i.main) refers to rt_cmsis.o(i.osKernelStart) for osKernelStart
    main.o(i.main) refers to rt_cmsis.o(i.osDelay) for osDelay
    main.o(i.main) refers to flash.o(i.FLASH_WriteData) for FLASH_WriteData
    main.o(i.main) refers to stm32f30x_iwdg.o(i.IWDG_ReloadCounter) for IWDG_ReloadCounter
    main.o(i.main) refers to rt_cmsis.o(i.osThreadYield) for osThreadYield
    main.o(i.main) refers to canbus.o(.bss) for canbus
    main.o(i.main) refers to power.o(.data) for time_check_sensor
    main.o(i.main) refers to serial.o(.bss) for mcu_config
    thread.o(i.Init_Thread) refers to serial.o(i.load_mcu_config) for load_mcu_config
    thread.o(i.Init_Thread) refers to serial.o(i.Serial_Init) for Serial_Init
    thread.o(i.Init_Thread) refers to digital.o(i.digital_init) for digital_init
    thread.o(i.Init_Thread) refers to power.o(i.Power_Init) for Power_Init
    thread.o(i.Init_Thread) refers to interface.o(i.Interface_Init) for Interface_Init
    thread.o(i.Init_Thread) refers to canbus.o(i.CAN_service_init) for CAN_service_init
    serial.o(i.EC21_data_parser) refers to flash.o(i.FLASH_WriteData) for FLASH_WriteData
    serial.o(i.EC21_data_parser) refers to serial.o(.bss) for .bss
    serial.o(i.PrintError) refers to strlen.o(.text) for strlen
    serial.o(i.PrintError) refers to serial.o(i.UART_SendByte) for UART_SendByte
    serial.o(i.SerialPushBuffer) refers to rt_cmsis.o(i.osSemaphoreWait) for osSemaphoreWait
    serial.o(i.SerialPushBuffer) refers to serial.o(i.SerialPushByte) for SerialPushByte
    serial.o(i.SerialPushBuffer) refers to rt_cmsis.o(i.osSemaphoreRelease) for osSemaphoreRelease
    serial.o(i.SerialPushBuffer) refers to serial.o(.data) for .data
    serial.o(i.SerialPushBufferWithCS) refers to utils.o(i.CRC_8BitsCompute) for CRC_8BitsCompute
    serial.o(i.SerialPushBufferWithCS) refers to serial.o(i.SerialPushBuffer) for SerialPushBuffer
    serial.o(i.SerialPushBufferWithCS) refers to serial.o(i.SerialPushByte) for SerialPushByte
    serial.o(i.SerialPushByte) refers to serial.o(i.UART_SendByte) for UART_SendByte
    serial.o(i.SerialPushStr) refers to strlen.o(.text) for strlen
    serial.o(i.SerialPushStr) refers to rt_cmsis.o(i.osSemaphoreWait) for osSemaphoreWait
    serial.o(i.SerialPushStr) refers to serial.o(i.SerialPushByte) for SerialPushByte
    serial.o(i.SerialPushStr) refers to rt_cmsis.o(i.osDelay) for osDelay
    serial.o(i.SerialPushStr) refers to rt_cmsis.o(i.osSemaphoreRelease) for osSemaphoreRelease
    serial.o(i.SerialPushStr) refers to serial.o(.data) for .data
    serial.o(i.SerialUARTInit) refers to stm32f30x_rcc.o(i.RCC_AHBPeriphClockCmd) for RCC_AHBPeriphClockCmd
    serial.o(i.SerialUARTInit) refers to stm32f30x_rcc.o(i.RCC_APB2PeriphClockCmd) for RCC_APB2PeriphClockCmd
    serial.o(i.SerialUARTInit) refers to stm32f30x_gpio.o(i.GPIO_Init) for GPIO_Init
    serial.o(i.SerialUARTInit) refers to stm32f30x_gpio.o(i.GPIO_PinAFConfig) for GPIO_PinAFConfig
    serial.o(i.SerialUARTInit) refers to stm32f30x_usart.o(i.USART_StructInit) for USART_StructInit
    serial.o(i.SerialUARTInit) refers to stm32f30x_usart.o(i.USART_Init) for USART_Init
    serial.o(i.SerialUARTInit) refers to stm32f30x_usart.o(i.USART_ITConfig) for USART_ITConfig
    serial.o(i.SerialUARTInit) refers to stm32f30x_usart.o(i.USART_Cmd) for USART_Cmd
    serial.o(i.Serial_Init) refers to rt_cmsis.o(i.osSemaphoreCreate) for osSemaphoreCreate
    serial.o(i.Serial_Init) refers to rt_cmsis.o(i.osMessageCreate) for osMessageCreate
    serial.o(i.Serial_Init) refers to rt_cmsis.o(i.osMailCreate) for osMailCreate
    serial.o(i.Serial_Init) refers to rt_cmsis.o(i.osThreadCreate) for osThreadCreate
    serial.o(i.Serial_Init) refers to serial.o(i.SerialUARTInit) for SerialUARTInit
    serial.o(i.Serial_Init) refers to serial.o(.constdata) for .constdata
    serial.o(i.Serial_Init) refers to serial.o(.data) for .data
    serial.o(i.Serial_Parse) refers to strncmp.o(.text) for strncmp
    serial.o(i.Serial_Parse) refers to serial.o(i.EC21_data_parser) for EC21_data_parser
    serial.o(i.Serial_Parse) refers to digital.o(i.USART2PushBuffer) for USART2PushBuffer
    serial.o(i.Serial_Parse) refers to digital.o(i.UART4PushBuffer) for UART4PushBuffer
    serial.o(i.Serial_Parse) refers to flash.o(i.FLASH_ReadBufData) for FLASH_ReadBufData
    serial.o(i.Serial_Parse) refers to utils.o(i.CRC32Software) for CRC32Software
    serial.o(i.Serial_Parse) refers to flash.o(i.FLASH_WriteBufData) for FLASH_WriteBufData
    serial.o(i.Serial_Parse) refers to memcpya.o(.text) for __aeabi_memcpy
    serial.o(i.Serial_Parse) refers to utils.o(i.CRC_8BitsCompute) for CRC_8BitsCompute
    serial.o(i.Serial_Parse) refers to serial.o(i.SerialPushBuffer) for SerialPushBuffer
    serial.o(i.Serial_Parse) refers to rt_cmsis.o(i.osDelay) for osDelay
    serial.o(i.Serial_Parse) refers to serial.o(i.SerialPushStr) for SerialPushStr
    serial.o(i.Serial_Parse) refers to serial.o(i.SerialPushBufferWithCS) for SerialPushBufferWithCS
    serial.o(i.Serial_Parse) refers to flash.o(i.FLASH_WriteData) for FLASH_WriteData
    serial.o(i.Serial_Parse) refers to power.o(i.ec21_power_rst) for ec21_power_rst
    serial.o(i.Serial_Parse) refers to power.o(i.device_battery_off) for device_battery_off
    serial.o(i.Serial_Parse) refers to stm32f30x_gpio.o(i.GPIO_SetBits) for GPIO_SetBits
    serial.o(i.Serial_Parse) refers to stm32f30x_gpio.o(i.GPIO_ResetBits) for GPIO_ResetBits
    serial.o(i.Serial_Parse) refers to serial.o(.bss) for .bss
    serial.o(i.SerialrxBufferPush) refers to serial.o(.bss) for .bss
    serial.o(i.SerialrxBufferPush) refers to serial.o(.data) for .data
    serial.o(i.UART_SendByte) refers to rt_cmsis.o(i.osKernelSysTick) for osKernelSysTick
    serial.o(i.UART_SendByte) refers to stm32f30x_usart.o(i.USART_GetFlagStatus) for USART_GetFlagStatus
    serial.o(i.UART_SendByte) refers to stm32f30x_usart.o(i.USART_SendData) for USART_SendData
    serial.o(i.UART_SendByte) refers to rtx_conf_cm.o(.constdata) for os_tickus_i
    serial.o(i.UART_SendByte) refers to rtx_conf_cm.o(.constdata) for os_tickus_f
    serial.o(i.USART1_IRQHandler) refers to stm32f30x_usart.o(i.USART_GetITStatus) for USART_GetITStatus
    serial.o(i.USART1_IRQHandler) refers to stm32f30x_usart.o(i.USART_ReceiveData) for USART_ReceiveData
    serial.o(i.USART1_IRQHandler) refers to rt_cmsis.o(i.osMessagePut) for osMessagePut
    serial.o(i.USART1_IRQHandler) refers to serial.o(.data) for .data
    serial.o(i.load_mcu_config) refers to flash.o(i.FLASH_ReadData) for FLASH_ReadData
    serial.o(i.load_mcu_config) refers to serial.o(.bss) for .bss
    serial.o(i.serial_report_data) refers to memseta.o(.text) for __aeabi_memclr4
    serial.o(i.serial_report_data) refers to stm32f30x_gpio.o(i.GPIO_ReadInputDataBit) for GPIO_ReadInputDataBit
    serial.o(i.serial_report_data) refers to dmul.o(.text) for __aeabi_dmul
    serial.o(i.serial_report_data) refers to dfixui.o(.text) for __aeabi_d2uiz
    serial.o(i.serial_report_data) refers to utils.o(i.CRC_8BitsCompute) for CRC_8BitsCompute
    serial.o(i.serial_report_data) refers to serial.o(i.SerialPushBuffer) for SerialPushBuffer
    serial.o(i.serial_report_data) refers to serial.o(.bss) for .bss
    serial.o(i.serial_report_data) refers to power.o(.bss) for ADCData
    serial.o(i.serial_report_data) refers to canbus.o(.bss) for canbus
    serial.o(i.serial_report_data) refers to power.o(.data) for counter_ir_1
    serial.o(i.vSerialReceiver) refers to rt_cmsis.o(i.osMessageGet) for osMessageGet
    serial.o(i.vSerialReceiver) refers to serial.o(i.SerialrxBufferPush) for SerialrxBufferPush
    serial.o(i.vSerialReceiver) refers to rt_cmsis.o(i.osThreadYield) for osThreadYield
    serial.o(i.vSerialReceiver) refers to rt_cmsis.o(i.osMailAlloc) for osMailAlloc
    serial.o(i.vSerialReceiver) refers to memcpya.o(.text) for __aeabi_memcpy
    serial.o(i.vSerialReceiver) refers to rt_cmsis.o(i.osMailPut) for osMailPut
    serial.o(i.vSerialReceiver) refers to serial.o(.data) for .data
    serial.o(i.vSerialReceiver) refers to serial.o(.bss) for .bss
    serial.o(i.vSerialTask) refers to rt_cmsis.o(i.osMailGet) for osMailGet
    serial.o(i.vSerialTask) refers to utils.o(i.CRC_8BitsCompute) for CRC_8BitsCompute
    serial.o(i.vSerialTask) refers to serial.o(i.Serial_Parse) for Serial_Parse
    serial.o(i.vSerialTask) refers to serial.o(i.SerialPushStr) for SerialPushStr
    serial.o(i.vSerialTask) refers to rt_cmsis.o(i.osMailFree) for osMailFree
    serial.o(i.vSerialTask) refers to interface.o(i.Set_Led_Status) for Set_Led_Status
    serial.o(i.vSerialTask) refers to power.o(i.EC21_PW_Reset) for EC21_PW_Reset
    serial.o(i.vSerialTask) refers to memseta.o(.text) for __aeabi_memclr4
    serial.o(i.vSerialTask) refers to interface.o(i.get_buzer_state) for get_buzer_state
    serial.o(i.vSerialTask) refers to rt_cmsis.o(i.osDelay) for osDelay
    serial.o(i.vSerialTask) refers to power.o(i.device_battery_off) for device_battery_off
    serial.o(i.vSerialTask) refers to rt_cmsis.o(i.osThreadYield) for osThreadYield
    serial.o(i.vSerialTask) refers to serial.o(.data) for .data
    serial.o(i.vSerialTask) refers to serial.o(.bss) for .bss
    serial.o(i.vSerialTask) refers to power.o(.data) for PowerData
    serial.o(i.vSerialTask) refers to serial.o(.conststring) for .conststring
    serial.o(i.vSerialTransfer) refers to serial.o(i.serial_report_data) for serial_report_data
    serial.o(i.vSerialTransfer) refers to rt_cmsis.o(i.osDelay) for osDelay
    serial.o(i.vSerialTransfer) refers to rt_cmsis.o(i.osThreadYield) for osThreadYield
    serial.o(.constdata) refers to serial.o(.data) for os_semaphore_cb_sSerialFree
    serial.o(.constdata) refers to serial.o(.bss) for os_messageQ_q_SerialRxMsgBox
    serial.o(.constdata) refers to serial.o(.data) for os_mailQ_p_SerialPkgMailBox
    serial.o(.constdata) refers to serial.o(i.vSerialReceiver) for vSerialReceiver
    serial.o(.constdata) refers to serial.o(i.vSerialTransfer) for vSerialTransfer
    serial.o(.constdata) refers to serial.o(i.vSerialTask) for vSerialTask
    serial.o(.data) refers to serial.o(.bss) for os_mailQ_q_SerialPkgMailBox
    serial.o(.data) refers to serial.o(.bss) for os_mailQ_m_SerialPkgMailBox
    power.o(i.ADC_Initialize) refers to stm32f30x_rcc.o(i.RCC_ADCCLKConfig) for RCC_ADCCLKConfig
    power.o(i.ADC_Initialize) refers to stm32f30x_rcc.o(i.RCC_AHBPeriphClockCmd) for RCC_AHBPeriphClockCmd
    power.o(i.ADC_Initialize) refers to stm32f30x_gpio.o(i.GPIO_Init) for GPIO_Init
    power.o(i.ADC_Initialize) refers to stm32f30x_dma.o(i.DMA_DeInit) for DMA_DeInit
    power.o(i.ADC_Initialize) refers to stm32f30x_dma.o(i.DMA_Init) for DMA_Init
    power.o(i.ADC_Initialize) refers to stm32f30x_adc.o(i.ADC_StructInit) for ADC_StructInit
    power.o(i.ADC_Initialize) refers to stm32f30x_adc.o(i.ADC_VoltageRegulatorCmd) for ADC_VoltageRegulatorCmd
    power.o(i.ADC_Initialize) refers to rt_cmsis.o(i.osDelay) for osDelay
    power.o(i.ADC_Initialize) refers to stm32f30x_adc.o(i.ADC_SelectCalibrationMode) for ADC_SelectCalibrationMode
    power.o(i.ADC_Initialize) refers to stm32f30x_adc.o(i.ADC_StartCalibration) for ADC_StartCalibration
    power.o(i.ADC_Initialize) refers to stm32f30x_adc.o(i.ADC_GetCalibrationStatus) for ADC_GetCalibrationStatus
    power.o(i.ADC_Initialize) refers to stm32f30x_adc.o(i.ADC_CommonInit) for ADC_CommonInit
    power.o(i.ADC_Initialize) refers to stm32f30x_adc.o(i.ADC_Init) for ADC_Init
    power.o(i.ADC_Initialize) refers to stm32f30x_adc.o(i.ADC_RegularChannelConfig) for ADC_RegularChannelConfig
    power.o(i.ADC_Initialize) refers to stm32f30x_adc.o(i.ADC_TempSensorCmd) for ADC_TempSensorCmd
    power.o(i.ADC_Initialize) refers to stm32f30x_adc.o(i.ADC_DMAConfig) for ADC_DMAConfig
    power.o(i.ADC_Initialize) refers to stm32f30x_dma.o(i.DMA_ITConfig) for DMA_ITConfig
    power.o(i.ADC_Initialize) refers to stm32f30x_adc.o(i.ADC_DMACmd) for ADC_DMACmd
    power.o(i.ADC_Initialize) refers to stm32f30x_adc.o(i.ADC_Cmd) for ADC_Cmd
    power.o(i.ADC_Initialize) refers to stm32f30x_adc.o(i.ADC_GetFlagStatus) for ADC_GetFlagStatus
    power.o(i.ADC_Initialize) refers to stm32f30x_dma.o(i.DMA_Cmd) for DMA_Cmd
    power.o(i.ADC_Initialize) refers to stm32f30x_adc.o(i.ADC_StartConversion) for ADC_StartConversion
    power.o(i.ADC_Initialize) refers to serial.o(.bss) for mcu_config
    power.o(i.ADC_Initialize) refers to power.o(.bss) for .bss
    power.o(i.ADC_ReadFuelValue) refers to memseta.o(.text) for __aeabi_memclr
    power.o(i.ADC_ReadFuelValue) refers to stm32f30x_dma.o(i.DMA_GetITStatus) for DMA_GetITStatus
    power.o(i.ADC_ReadFuelValue) refers to stm32f30x_dma.o(i.DMA_ClearITPendingBit) for DMA_ClearITPendingBit
    power.o(i.ADC_ReadFuelValue) refers to utils.o(i.ArraySort) for ArraySort
    power.o(i.ADC_ReadFuelValue) refers to power.o(.bss) for .bss
    power.o(i.ADC_fillter_values) refers to utils.o(i.ArraySort) for ArraySort
    power.o(i.ADC_fillter_values) refers to power.o(.bss) for .bss
    power.o(i.ADC_fillter_values) refers to power.o(.data) for .data
    power.o(i.BAT_fillter_values) refers to utils.o(i.ArraySort) for ArraySort
    power.o(i.BAT_fillter_values) refers to power.o(.bss) for .bss
    power.o(i.BAT_fillter_values) refers to power.o(.data) for .data
    power.o(i.BlinkIRLed) refers to stm32f30x_tim.o(i.TIM_Cmd) for TIM_Cmd
    power.o(i.BlinkIRLed) refers to rt_cmsis.o(i.osDelay) for osDelay
    power.o(i.DMA1_Channel1_IRQHandler) refers to stm32f30x_dma.o(i.DMA_GetITStatus) for DMA_GetITStatus
    power.o(i.DMA1_Channel1_IRQHandler) refers to stm32f30x_dma.o(i.DMA_ClearITPendingBit) for DMA_ClearITPendingBit
    power.o(i.EC21_PW_Reset) refers to stm32f30x_gpio.o(i.GPIO_SetBits) for GPIO_SetBits
    power.o(i.EC21_PW_Reset) refers to stm32f30x_gpio.o(i.GPIO_ResetBits) for GPIO_ResetBits
    power.o(i.EC21_PW_Reset) refers to rt_cmsis.o(i.osDelay) for osDelay
    power.o(i.EXTI0_IRQHandler) refers to stm32f30x_exti.o(i.EXTI_GetITStatus) for EXTI_GetITStatus
    power.o(i.EXTI0_IRQHandler) refers to stm32f30x_gpio.o(i.GPIO_ReadInputDataBit) for GPIO_ReadInputDataBit
    power.o(i.EXTI0_IRQHandler) refers to stm32f30x_exti.o(i.EXTI_ClearITPendingBit) for EXTI_ClearITPendingBit
    power.o(i.EXTI0_IRQHandler) refers to power.o(.bss) for .bss
    power.o(i.EXTI0_IRQHandler) refers to serial.o(.bss) for mcu_config
    power.o(i.EXTI15_10_IRQHandler) refers to stm32f30x_exti.o(i.EXTI_GetITStatus) for EXTI_GetITStatus
    power.o(i.EXTI15_10_IRQHandler) refers to stm32f30x_exti.o(i.EXTI_ClearITPendingBit) for EXTI_ClearITPendingBit
    power.o(i.EXTI15_10_IRQHandler) refers to power.o(.bss) for .bss
    power.o(i.FuelCyclesConfig) refers to stm32f30x_rcc.o(i.RCC_AHBPeriphClockCmd) for RCC_AHBPeriphClockCmd
    power.o(i.FuelCyclesConfig) refers to stm32f30x_gpio.o(i.GPIO_Init) for GPIO_Init
    power.o(i.FuelCyclesConfig) refers to stm32f30x_rcc.o(i.RCC_APB2PeriphClockCmd) for RCC_APB2PeriphClockCmd
    power.o(i.FuelCyclesConfig) refers to stm32f30x_syscfg.o(i.SYSCFG_EXTILineConfig) for SYSCFG_EXTILineConfig
    power.o(i.FuelCyclesConfig) refers to stm32f30x_exti.o(i.EXTI_Init) for EXTI_Init
    power.o(i.FuelCyclesConfig) refers to power.o(i.__NVIC_EnableIRQ) for __NVIC_EnableIRQ
    power.o(i.FuelCyclesConfig) refers to serial.o(.bss) for mcu_config
    power.o(i.InitPWM) refers to stm32f30x_rcc.o(i.RCC_AHBPeriphClockCmd) for RCC_AHBPeriphClockCmd
    power.o(i.InitPWM) refers to stm32f30x_gpio.o(i.GPIO_Init) for GPIO_Init
    power.o(i.InitPWM) refers to stm32f30x_gpio.o(i.GPIO_PinAFConfig) for GPIO_PinAFConfig
    power.o(i.InitPWM) refers to stm32f30x_rcc.o(i.RCC_APB1PeriphClockCmd) for RCC_APB1PeriphClockCmd
    power.o(i.InitPWM) refers to stm32f30x_tim.o(i.TIM_DeInit) for TIM_DeInit
    power.o(i.InitPWM) refers to stm32f30x_tim.o(i.TIM_TimeBaseInit) for TIM_TimeBaseInit
    power.o(i.InitPWM) refers to stm32f30x_tim.o(i.TIM_OC1Init) for TIM_OC1Init
    power.o(i.InitPWM) refers to stm32f30x_tim.o(i.TIM_OC1PreloadConfig) for TIM_OC1PreloadConfig
    power.o(i.InitPWM) refers to stm32f30x_tim.o(i.TIM_ARRPreloadConfig) for TIM_ARRPreloadConfig
    power.o(i.InitPWM) refers to stm32f30x_tim.o(i.TIM_CtrlPWMOutputs) for TIM_CtrlPWMOutputs
    power.o(i.InitVS1838B) refers to stm32f30x_rcc.o(i.RCC_AHBPeriphClockCmd) for RCC_AHBPeriphClockCmd
    power.o(i.InitVS1838B) refers to stm32f30x_gpio.o(i.GPIO_Init) for GPIO_Init
    power.o(i.InitVS1838B) refers to stm32f30x_gpio.o(i.GPIO_ResetBits) for GPIO_ResetBits
    power.o(i.InitVS1838B) refers to stm32f30x_rcc.o(i.RCC_APB2PeriphClockCmd) for RCC_APB2PeriphClockCmd
    power.o(i.InitVS1838B) refers to stm32f30x_syscfg.o(i.SYSCFG_EXTILineConfig) for SYSCFG_EXTILineConfig
    power.o(i.InitVS1838B) refers to stm32f30x_exti.o(i.EXTI_Init) for EXTI_Init
    power.o(i.InitVS1838B) refers to power.o(i.__NVIC_EnableIRQ) for __NVIC_EnableIRQ
    power.o(i.InitVS1838B) refers to power.o(i.InitPWM) for InitPWM
    power.o(i.PW_Control_init) refers to stm32f30x_rcc.o(i.RCC_AHBPeriphClockCmd) for RCC_AHBPeriphClockCmd
    power.o(i.PW_Control_init) refers to stm32f30x_gpio.o(i.GPIO_Init) for GPIO_Init
    power.o(i.PW_Control_init) refers to stm32f30x_gpio.o(i.GPIO_SetBits) for GPIO_SetBits
    power.o(i.PW_Control_init) refers to stm32f30x_gpio.o(i.GPIO_ResetBits) for GPIO_ResetBits
    power.o(i.Power_Init) refers to rt_cmsis.o(i.osThreadCreate) for osThreadCreate
    power.o(i.Power_Init) refers to power.o(i.ADC_Initialize) for ADC_Initialize
    power.o(i.Power_Init) refers to power.o(i.PW_Control_init) for PW_Control_init
    power.o(i.Power_Init) refers to power.o(i.InitVS1838B) for InitVS1838B
    power.o(i.Power_Init) refers to stm32f30x_rcc.o(i.RCC_APB1PeriphClockCmd) for RCC_APB1PeriphClockCmd
    power.o(i.Power_Init) refers to power.o(i.__NVIC_EnableIRQ) for __NVIC_EnableIRQ
    power.o(i.Power_Init) refers to stm32f30x_tim.o(i.TIM_TimeBaseInit) for TIM_TimeBaseInit
    power.o(i.Power_Init) refers to stm32f30x_tim.o(i.TIM_UpdateRequestConfig) for TIM_UpdateRequestConfig
    power.o(i.Power_Init) refers to stm32f30x_tim.o(i.TIM_ClearITPendingBit) for TIM_ClearITPendingBit
    power.o(i.Power_Init) refers to stm32f30x_tim.o(i.TIM_ITConfig) for TIM_ITConfig
    power.o(i.Power_Init) refers to stm32f30x_tim.o(i.TIM_Cmd) for TIM_Cmd
    power.o(i.Power_Init) refers to power.o(i.FuelCyclesConfig) for FuelCyclesConfig
    power.o(i.Power_Init) refers to power.o(.constdata) for .constdata
    power.o(i.Power_Init) refers to power.o(.data) for .data
    power.o(i.Power_Init) refers to serial.o(.bss) for mcu_config
    power.o(i.TIM3_IRQHandler) refers to stm32f30x_tim.o(i.TIM_GetITStatus) for TIM_GetITStatus
    power.o(i.TIM3_IRQHandler) refers to stm32f30x_tim.o(i.TIM_ClearITPendingBit) for TIM_ClearITPendingBit
    power.o(i.TIM3_IRQHandler) refers to power.o(.bss) for .bss
    power.o(i.device_battery_off) refers to power.o(.data) for .data
    power.o(i.ec21_power_rst) refers to power.o(.data) for .data
    power.o(i.get_adc_values) refers to power.o(i.ADC_ReadFuelValue) for ADC_ReadFuelValue
    power.o(i.get_adc_values) refers to power.o(i.BAT_fillter_values) for BAT_fillter_values
    power.o(i.get_adc_values) refers to dfltui.o(.text) for __aeabi_ui2d
    power.o(i.get_adc_values) refers to dmul.o(.text) for __aeabi_dmul
    power.o(i.get_adc_values) refers to dadd.o(.text) for __aeabi_drsub
    power.o(i.get_adc_values) refers to ddiv.o(.text) for __aeabi_ddiv
    power.o(i.get_adc_values) refers to dfixui.o(.text) for __aeabi_d2uiz
    power.o(i.get_adc_values) refers to power.o(i.ADC_fillter_values) for ADC_fillter_values
    power.o(i.get_adc_values) refers to power.o(.bss) for .bss
    power.o(i.get_adc_values) refers to serial.o(.bss) for mcu_config
    power.o(i.vIRLedTask) refers to rt_cmsis.o(i.osDelay) for osDelay
    power.o(i.vIRLedTask) refers to power.o(i.BlinkIRLed) for BlinkIRLed
    power.o(i.vIRLedTask) refers to interface.o(i.Buzz_Off) for Buzz_Off
    power.o(i.vIRLedTask) refers to interface.o(i.Buzz_On) for Buzz_On
    power.o(i.vIRLedTask) refers to power.o(.bss) for .bss
    power.o(i.vIRLedTask) refers to canbus.o(.bss) for canbus
    power.o(i.vIRLedTask) refers to serial.o(.bss) for mcu_config
    power.o(i.vIRLedTask) refers to power.o(.data) for .data
    power.o(i.vIRLedTask) refers to interface.o(.data) for Mode_disable_OBD
    power.o(i.vPowerTask) refers to flash.o(i.FLASH_ReadData) for FLASH_ReadData
    power.o(i.vPowerTask) refers to flash.o(i.FLASH_WriteData) for FLASH_WriteData
    power.o(i.vPowerTask) refers to power.o(i.get_adc_values) for get_adc_values
    power.o(i.vPowerTask) refers to serial.o(i.SerialPushStr) for SerialPushStr
    power.o(i.vPowerTask) refers to stm32f30x_gpio.o(i.GPIO_SetBits) for GPIO_SetBits
    power.o(i.vPowerTask) refers to stm32f30x_gpio.o(i.GPIO_ResetBits) for GPIO_ResetBits
    power.o(i.vPowerTask) refers to rt_cmsis.o(i.osDelay) for osDelay
    power.o(i.vPowerTask) refers to power.o(i.EC21_PW_Reset) for EC21_PW_Reset
    power.o(i.vPowerTask) refers to rt_cmsis.o(i.osThreadYield) for osThreadYield
    power.o(i.vPowerTask) refers to power.o(.bss) for .bss
    power.o(i.vPowerTask) refers to power.o(.data) for .data
    power.o(.constdata) refers to power.o(i.vPowerTask) for vPowerTask
    power.o(.constdata) refers to power.o(i.vIRLedTask) for vIRLedTask
    utils.o(i.CLS2_check_mes) refers to _scanf_int.o(.text) for _scanf_int
    utils.o(i.CLS2_check_mes) refers to __0sscanf.o(.text) for __0sscanf
    utils.o(i.CRC32Software) refers to utils.o(.constdata) for .constdata
    utils.o(i.CRC_8BitsCompute) refers to utils.o(.constdata) for .constdata
    utils.o(i.cal_sum_str) refers to strlen.o(.text) for strlen
    utils.o(i.calcCrc32) refers to stm32f30x_rcc.o(i.RCC_AHBPeriphClockCmd) for RCC_AHBPeriphClockCmd
    utils.o(i.calcCrc32) refers to stm32f30x_crc.o(i.CRC_ResetDR) for CRC_ResetDR
    utils.o(i.char_index_of) refers to strlen.o(.text) for strlen
    utils.o(i.number_check_valid) refers to strlen.o(.text) for strlen
    utils.o(i.sTrim) refers to strlen.o(.text) for strlen
    utils.o(i.str_find) refers to strstr.o(.text) for strstr
    utils.o(i.str_lower) refers to tolower.o(.text) for tolower
    utils.o(i.str_trim) refers to strlen.o(.text) for strlen
    utils.o(i.str_upper) refers to toupper.o(.text) for toupper
    digital.o(i.ECUJ1587_Data_Request) refers to stm32f30x_gpio.o(i.GPIO_SetBits) for GPIO_SetBits
    digital.o(i.ECUJ1587_Data_Request) refers to rt_cmsis.o(i.osDelay) for osDelay
    digital.o(i.ECUJ1587_Data_Request) refers to serial.o(i.UART_SendByte) for UART_SendByte
    digital.o(i.ECUJ1587_Data_Request) refers to stm32f30x_gpio.o(i.GPIO_ResetBits) for GPIO_ResetBits
    digital.o(i.FuelTimeoutHanler) refers to digital.o(.data) for .data
    digital.o(i.Fuel_232_parse) refers to strncmp.o(.text) for strncmp
    digital.o(i.Fuel_232_parse) refers to utils.o(i.CRC_8BitsCompute) for CRC_8BitsCompute
    digital.o(i.Fuel_232_parse) refers to utils.o(i.cal_sum_buffer) for cal_sum_buffer
    digital.o(i.Fuel_232_parse) refers to utils.o(i.str_trim) for str_trim
    digital.o(i.Fuel_232_parse) refers to strlen.o(.text) for strlen
    digital.o(i.Fuel_232_parse) refers to utils.o(i.CLS2_check_mes) for CLS2_check_mes
    digital.o(i.Fuel_232_parse) refers to atof.o(i.__hardfp_atof) for __hardfp_atof
    digital.o(i.Fuel_232_parse) refers to d2f.o(.text) for __aeabi_d2f
    digital.o(i.J1587HandlerRequest) refers to digital.o(i.ECUJ1587_Data_Request) for ECUJ1587_Data_Request
    digital.o(i.J1587ParserPID) refers to dfltui.o(.text) for __aeabi_ui2d
    digital.o(i.J1587ParserPID) refers to dmul.o(.text) for __aeabi_dmul
    digital.o(i.J1587ParserPID) refers to ddiv.o(.text) for __aeabi_ddiv
    digital.o(i.J1587ParserPID) refers to digital.o(i.StoreFaultCodeJ1587) for StoreFaultCodeJ1587
    digital.o(i.J1587ParserPID) refers to dfixui.o(.text) for __aeabi_d2uiz
    digital.o(i.J1587ParserPID) refers to canbus.o(.bss) for canbus
    digital.o(i.J1587ParserPID) refers to digital.o(.bss) for .bss
    digital.o(i.J1587ParserPID) refers to digital.o(.data) for .data
    digital.o(i.StoreFaultCodeJ1587) refers to digital.o(i.findFaultCodeJ1587) for findFaultCodeJ1587
    digital.o(i.StoreFaultCodeJ1587) refers to memcpya.o(.text) for __aeabi_memcpy4
    digital.o(i.StoreFaultCodeJ1587) refers to digital.o(.data) for .data
    digital.o(i.StoreFaultCodeJ1587) refers to digital.o(.bss) for .bss
    digital.o(i.UART4Init) refers to stm32f30x_rcc.o(i.RCC_AHBPeriphClockCmd) for RCC_AHBPeriphClockCmd
    digital.o(i.UART4Init) refers to stm32f30x_rcc.o(i.RCC_APB1PeriphClockCmd) for RCC_APB1PeriphClockCmd
    digital.o(i.UART4Init) refers to stm32f30x_gpio.o(i.GPIO_Init) for GPIO_Init
    digital.o(i.UART4Init) refers to stm32f30x_gpio.o(i.GPIO_PinAFConfig) for GPIO_PinAFConfig
    digital.o(i.UART4Init) refers to stm32f30x_usart.o(i.USART_StructInit) for USART_StructInit
    digital.o(i.UART4Init) refers to stm32f30x_usart.o(i.USART_Init) for USART_Init
    digital.o(i.UART4Init) refers to stm32f30x_usart.o(i.USART_ITConfig) for USART_ITConfig
    digital.o(i.UART4Init) refers to stm32f30x_usart.o(i.USART_Cmd) for USART_Cmd
    digital.o(i.UART4Init) refers to digital.o(i.__NVIC_EnableIRQ) for __NVIC_EnableIRQ
    digital.o(i.UART4PushBuffer) refers to serial.o(i.UART_SendByte) for UART_SendByte
    digital.o(i.UART4_IRQHandler) refers to stm32f30x_usart.o(i.USART_GetITStatus) for USART_GetITStatus
    digital.o(i.UART4_IRQHandler) refers to stm32f30x_usart.o(i.USART_ReceiveData) for USART_ReceiveData
    digital.o(i.UART4_IRQHandler) refers to rt_cmsis.o(i.osMessagePut) for osMessagePut
    digital.o(i.UART4_IRQHandler) refers to digital.o(.data) for .data
    digital.o(i.USART2Init) refers to stm32f30x_rcc.o(i.RCC_AHBPeriphClockCmd) for RCC_AHBPeriphClockCmd
    digital.o(i.USART2Init) refers to stm32f30x_rcc.o(i.RCC_APB1PeriphClockCmd) for RCC_APB1PeriphClockCmd
    digital.o(i.USART2Init) refers to stm32f30x_gpio.o(i.GPIO_Init) for GPIO_Init
    digital.o(i.USART2Init) refers to stm32f30x_gpio.o(i.GPIO_PinAFConfig) for GPIO_PinAFConfig
    digital.o(i.USART2Init) refers to stm32f30x_usart.o(i.USART_StructInit) for USART_StructInit
    digital.o(i.USART2Init) refers to stm32f30x_usart.o(i.USART_Init) for USART_Init
    digital.o(i.USART2Init) refers to stm32f30x_usart.o(i.USART_ITConfig) for USART_ITConfig
    digital.o(i.USART2Init) refers to stm32f30x_usart.o(i.USART_Cmd) for USART_Cmd
    digital.o(i.USART2Init) refers to digital.o(i.__NVIC_EnableIRQ) for __NVIC_EnableIRQ
    digital.o(i.USART2Init) refers to stm32f30x_gpio.o(i.GPIO_ResetBits) for GPIO_ResetBits
    digital.o(i.USART2Init) refers to serial.o(.bss) for mcu_config
    digital.o(i.USART2Init) refers to digital.o(.data) for .data
    digital.o(i.USART2PushBuffer) refers to serial.o(i.UART_SendByte) for UART_SendByte
    digital.o(i.USART2_IRQHandler) refers to stm32f30x_usart.o(i.USART_GetITStatus) for USART_GetITStatus
    digital.o(i.USART2_IRQHandler) refers to stm32f30x_usart.o(i.USART_ReceiveData) for USART_ReceiveData
    digital.o(i.USART2_IRQHandler) refers to rt_cmsis.o(i.osMessagePut) for osMessagePut
    digital.o(i.USART2_IRQHandler) refers to digital.o(.data) for .data
    digital.o(i.digital_init) refers to rt_cmsis.o(i.osMessageCreate) for osMessageCreate
    digital.o(i.digital_init) refers to rt_cmsis.o(i.osThreadCreate) for osThreadCreate
    digital.o(i.digital_init) refers to rt_cmsis.o(i.osMailCreate) for osMailCreate
    digital.o(i.digital_init) refers to rt_cmsis.o(i.osTimerCreate) for osTimerCreate
    digital.o(i.digital_init) refers to rt_cmsis.o(i.osTimerStart) for osTimerStart
    digital.o(i.digital_init) refers to digital.o(i.USART2Init) for USART2Init
    digital.o(i.digital_init) refers to digital.o(i.UART4Init) for UART4Init
    digital.o(i.digital_init) refers to digital.o(.constdata) for .constdata
    digital.o(i.digital_init) refers to digital.o(.data) for .data
    digital.o(i.digital_init) refers to serial.o(.bss) for mcu_config
    digital.o(i.findFaultCodeJ1587) refers to digital.o(.bss) for .bss
    digital.o(i.findFaultCodeJ1587) refers to digital.o(.data) for .data
    digital.o(i.vJ1587HandlerTask) refers to rt_cmsis.o(i.osMailGet) for osMailGet
    digital.o(i.vJ1587HandlerTask) refers to utils.o(i.cal_sum16_buffer) for cal_sum16_buffer
    digital.o(i.vJ1587HandlerTask) refers to digital.o(i.J1587ParserPID) for J1587ParserPID
    digital.o(i.vJ1587HandlerTask) refers to rt_cmsis.o(i.osMailFree) for osMailFree
    digital.o(i.vJ1587HandlerTask) refers to rt_cmsis.o(i.osThreadYield) for osThreadYield
    digital.o(i.vJ1587HandlerTask) refers to digital.o(.data) for .data
    digital.o(i.vJ1587RequestTask) refers to rt_cmsis.o(i.osDelay) for osDelay
    digital.o(i.vJ1587RequestTask) refers to stm32f30x_gpio.o(i.GPIO_ReadInputDataBit) for GPIO_ReadInputDataBit
    digital.o(i.vJ1587RequestTask) refers to stm32f30x_usart.o(i.USART_DeInit) for USART_DeInit
    digital.o(i.vJ1587RequestTask) refers to digital.o(i.USART2Init) for USART2Init
    digital.o(i.vJ1587RequestTask) refers to digital.o(i.J1587HandlerRequest) for J1587HandlerRequest
    digital.o(i.vJ1587RequestTask) refers to rt_cmsis.o(i.osThreadYield) for osThreadYield
    digital.o(i.vJ1587RequestTask) refers to serial.o(.bss) for mcu_config
    digital.o(i.vJ1587RequestTask) refers to digital.o(.data) for .data
    digital.o(i.vJ1587RequestTask) refers to power.o(.data) for time_check_sensor
    digital.o(i.vJ1587RequestTask) refers to power.o(.bss) for sensorIR
    digital.o(i.vJ1587RequestTask) refers to canbus.o(.bss) for canbus
    digital.o(i.vUART4Receiver) refers to rt_cmsis.o(i.osMessageGet) for osMessageGet
    digital.o(i.vUART4Receiver) refers to rt_cmsis.o(i.osThreadYield) for osThreadYield
    digital.o(i.vUART4Receiver) refers to digital.o(i.Fuel_232_parse) for Fuel_232_parse
    digital.o(i.vUART4Receiver) refers to digital.o(i.UART4PushBuffer) for UART4PushBuffer
    digital.o(i.vUART4Receiver) refers to digital.o(.data) for .data
    digital.o(i.vUART4Receiver) refers to digital.o(.bss) for .bss
    digital.o(i.vUSART2Receiver) refers to rt_cmsis.o(i.osMessageGet) for osMessageGet
    digital.o(i.vUSART2Receiver) refers to rt_cmsis.o(i.osThreadYield) for osThreadYield
    digital.o(i.vUSART2Receiver) refers to digital.o(i.Fuel_232_parse) for Fuel_232_parse
    digital.o(i.vUSART2Receiver) refers to rt_cmsis.o(i.osMailAlloc) for osMailAlloc
    digital.o(i.vUSART2Receiver) refers to memcpya.o(.text) for __aeabi_memcpy
    digital.o(i.vUSART2Receiver) refers to rt_cmsis.o(i.osMailPut) for osMailPut
    digital.o(i.vUSART2Receiver) refers to serial.o(i.SerialPushStr) for SerialPushStr
    digital.o(i.vUSART2Receiver) refers to digital.o(i.USART2PushBuffer) for USART2PushBuffer
    digital.o(i.vUSART2Receiver) refers to digital.o(.bss) for .bss
    digital.o(i.vUSART2Receiver) refers to digital.o(.data) for .data
    digital.o(i.vUSART2Receiver) refers to serial.o(.bss) for mcu_config
    digital.o(.constdata) refers to digital.o(i.FuelTimeoutHanler) for FuelTimeoutHanler
    digital.o(.constdata) refers to digital.o(.bss) for os_timer_cb_FuelTimer
    digital.o(.constdata) refers to digital.o(.bss) for os_messageQ_q_UART4RxMsgBox
    digital.o(.constdata) refers to digital.o(.bss) for os_messageQ_q_USART2RxMsgBox
    digital.o(.constdata) refers to digital.o(i.vUART4Receiver) for vUART4Receiver
    digital.o(.constdata) refers to digital.o(i.vUSART2Receiver) for vUSART2Receiver
    digital.o(.constdata) refers to digital.o(i.vJ1587HandlerTask) for vJ1587HandlerTask
    digital.o(.constdata) refers to digital.o(i.vJ1587RequestTask) for vJ1587RequestTask
    digital.o(.constdata) refers to digital.o(.data) for os_mailQ_p_J1587PkgMailBox
    digital.o(.data) refers to digital.o(.bss) for os_mailQ_q_J1587PkgMailBox
    digital.o(.data) refers to digital.o(.bss) for os_mailQ_m_J1587PkgMailBox
    canbus.o(i.CAN_Config) refers to stm32f30x_rcc.o(i.RCC_AHBPeriphClockCmd) for RCC_AHBPeriphClockCmd
    canbus.o(i.CAN_Config) refers to stm32f30x_rcc.o(i.RCC_APB1PeriphClockCmd) for RCC_APB1PeriphClockCmd
    canbus.o(i.CAN_Config) refers to stm32f30x_can.o(i.CAN_DeInit) for CAN_DeInit
    canbus.o(i.CAN_Config) refers to stm32f30x_gpio.o(i.GPIO_PinAFConfig) for GPIO_PinAFConfig
    canbus.o(i.CAN_Config) refers to stm32f30x_gpio.o(i.GPIO_Init) for GPIO_Init
    canbus.o(i.CAN_Config) refers to stm32f30x_can.o(i.CAN_StructInit) for CAN_StructInit
    canbus.o(i.CAN_Config) refers to stm32f30x_can.o(i.CAN_Init) for CAN_Init
    canbus.o(i.CAN_Config) refers to stm32f30x_can.o(i.CAN_FilterInit) for CAN_FilterInit
    canbus.o(i.CAN_Config) refers to stm32f30x_can.o(i.CAN_ITConfig) for CAN_ITConfig
    canbus.o(i.CAN_Config) refers to stm32f30x_misc.o(i.NVIC_Init) for NVIC_Init
    canbus.o(i.CAN_service_init) refers to rt_cmsis.o(i.osThreadCreate) for osThreadCreate
    canbus.o(i.CAN_service_init) refers to canbus.o(.constdata) for .constdata
    canbus.o(i.CAN_service_init) refers to canbus.o(.data) for .data
    canbus.o(i.FindFaultCodeODB) refers to canbus.o(.bss) for .bss
    canbus.o(i.FindFaultCodeODB) refers to canbus.o(.data) for .data
    canbus.o(i.J1939Handler) refers to dflti.o(.text) for __aeabi_i2d
    canbus.o(i.J1939Handler) refers to ddiv.o(.text) for __aeabi_ddiv
    canbus.o(i.J1939Handler) refers to canbus.o(i.StoreFaultCode) for StoreFaultCode
    canbus.o(i.J1939Handler) refers to dfltui.o(.text) for __aeabi_ui2d
    canbus.o(i.J1939Handler) refers to dmul.o(.text) for __aeabi_dmul
    canbus.o(i.J1939Handler) refers to cdcmple.o(.text) for __aeabi_cdcmpeq
    canbus.o(i.J1939Handler) refers to dfixui.o(.text) for __aeabi_d2uiz
    canbus.o(i.J1939Handler) refers to canbus.o(.bss) for .bss
    canbus.o(i.J1939Handler) refers to canbus.o(.data) for .data
    canbus.o(i.ODBIIHandler) refers to serial.o(.bss) for mcu_config
    canbus.o(i.ODBIIHandler) refers to canbus.o(.bss) for .bss
    canbus.o(i.ODBIIHandler) refers to power.o(.bss) for sensorIR
    canbus.o(i.SetECUClearData) refers to canbus.o(.data) for .data
    canbus.o(i.SetECUClearData) refers to canbus.o(.bss) for .bss
    canbus.o(i.StoreFaultCode) refers to canbus.o(i.findFaultCode) for findFaultCode
    canbus.o(i.StoreFaultCode) refers to canbus.o(.bss) for .bss
    canbus.o(i.StoreFaultCode) refers to canbus.o(.data) for .data
    canbus.o(i.StoreFaultCodeODBII) refers to canbus.o(i.FindFaultCodeODB) for FindFaultCodeODB
    canbus.o(i.StoreFaultCodeODBII) refers to memseta.o(.text) for __aeabi_memclr4
    canbus.o(i.StoreFaultCodeODBII) refers to printf8.o(i.__0sprintf$8) for __2sprintf
    canbus.o(i.StoreFaultCodeODBII) refers to canbus.o(.bss) for .bss
    canbus.o(i.StoreFaultCodeODBII) refers to canbus.o(.data) for .data
    canbus.o(i.USB_LP_CAN1_RX0_IRQHandler) refers to stm32f30x_can.o(i.CAN_GetITStatus) for CAN_GetITStatus
    canbus.o(i.USB_LP_CAN1_RX0_IRQHandler) refers to stm32f30x_can.o(i.CAN_Receive) for CAN_Receive
    canbus.o(i.USB_LP_CAN1_RX0_IRQHandler) refers to canbus.o(i.ODBIIHandler) for ODBIIHandler
    canbus.o(i.USB_LP_CAN1_RX0_IRQHandler) refers to canbus.o(i.J1939Handler) for J1939Handler
    canbus.o(i.USB_LP_CAN1_RX0_IRQHandler) refers to stm32f30x_can.o(i.CAN_ClearITPendingBit) for CAN_ClearITPendingBit
    canbus.o(i.USB_LP_CAN1_RX0_IRQHandler) refers to canbus.o(.bss) for .bss
    canbus.o(i.VF_Send_Request) refers to stm32f30x_can.o(i.CAN_Transmit) for CAN_Transmit
    canbus.o(i.VF_Send_Request) refers to canbus.o(.bss) for .bss
    canbus.o(i.findFaultCode) refers to canbus.o(.bss) for .bss
    canbus.o(i.findFaultCode) refers to canbus.o(.data) for .data
    canbus.o(i.vJ1939Task) refers to canbus.o(i.CAN_Config) for CAN_Config
    canbus.o(i.vJ1939Task) refers to rt_cmsis.o(i.osDelay) for osDelay
    canbus.o(i.vJ1939Task) refers to stm32f30x_can.o(i.CAN_DeInit) for CAN_DeInit
    canbus.o(i.vJ1939Task) refers to canbus.o(i.SetECUClearData) for SetECUClearData
    canbus.o(i.vJ1939Task) refers to canbus.o(i.VF_Send_Request) for VF_Send_Request
    canbus.o(i.vJ1939Task) refers to interface.o(.data) for Mode_disable_OBD
    canbus.o(i.vJ1939Task) refers to serial.o(.bss) for mcu_config
    canbus.o(i.vJ1939Task) refers to canbus.o(.data) for .data
    canbus.o(.constdata) refers to canbus.o(i.vJ1939Task) for vJ1939Task
    interface.o(i.ButtonTimerHanler) refers to stm32f30x_gpio.o(i.GPIO_ReadInputDataBit) for GPIO_ReadInputDataBit
    interface.o(i.ButtonTimerHanler) refers to interface.o(i.Buzz_On) for Buzz_On
    interface.o(i.ButtonTimerHanler) refers to interface.o(i.Buzz_Off) for Buzz_Off
    interface.o(i.ButtonTimerHanler) refers to interface.o(.data) for .data
    interface.o(i.ButtonTimerHanler) refers to serial.o(.bss) for mcu_config
    interface.o(i.ButtonTimerHanler) refers to power.o(.data) for time_check_sensor
    interface.o(i.ButtonTimerHanler) refers to power.o(.bss) for sensorIR
    interface.o(i.Buzz_Off) refers to interface.o(i.is_buzz_disable) for is_buzz_disable
    interface.o(i.Buzz_Off) refers to stm32f30x_tim.o(i.TIM_ITConfig) for TIM_ITConfig
    interface.o(i.Buzz_Off) refers to stm32f30x_tim.o(i.TIM_Cmd) for TIM_Cmd
    interface.o(i.Buzz_Off) refers to stm32f30x_gpio.o(i.GPIO_ResetBits) for GPIO_ResetBits
    interface.o(i.Buzz_On) refers to interface.o(i.is_buzz_disable) for is_buzz_disable
    interface.o(i.Buzz_On) refers to stm32f30x_tim.o(i.TIM_ITConfig) for TIM_ITConfig
    interface.o(i.Buzz_On) refers to stm32f30x_tim.o(i.TIM_Cmd) for TIM_Cmd
    interface.o(i.GPIO_Initialize) refers to stm32f30x_rcc.o(i.RCC_AHBPeriphClockCmd) for RCC_AHBPeriphClockCmd
    interface.o(i.GPIO_Initialize) refers to stm32f30x_gpio.o(i.GPIO_Init) for GPIO_Init
    interface.o(i.GPIO_Initialize) refers to stm32f30x_gpio.o(i.GPIO_SetBits) for GPIO_SetBits
    interface.o(i.GetStatusAir) refers to stm32f30x_gpio.o(i.GPIO_ReadInputDataBit) for GPIO_ReadInputDataBit
    interface.o(i.GetStatusAir) refers to serial.o(.bss) for mcu_config
    interface.o(i.GetStatusDoor) refers to stm32f30x_gpio.o(i.GPIO_ReadInputDataBit) for GPIO_ReadInputDataBit
    interface.o(i.GetStatusDoor) refers to serial.o(.bss) for mcu_config
    interface.o(i.Interface_Init) refers to interface.o(i.GPIO_Initialize) for GPIO_Initialize
    interface.o(i.Interface_Init) refers to interface.o(i.UserTimer_Init) for UserTimer_Init
    interface.o(i.Interface_Init) refers to interface.o(i.irqTimer_Init) for irqTimer_Init
    interface.o(i.Interface_Init) refers to rt_cmsis.o(i.osTimerCreate) for osTimerCreate
    interface.o(i.Interface_Init) refers to rt_cmsis.o(i.osTimerStart) for osTimerStart
    interface.o(i.Interface_Init) refers to serial.o(i.SerialPushStr) for SerialPushStr
    interface.o(i.Interface_Init) refers to interface.o(i.Set_Led_Status) for Set_Led_Status
    interface.o(i.Interface_Init) refers to serial.o(.bss) for mcu_config
    interface.o(i.Interface_Init) refers to interface.o(.constdata) for .constdata
    interface.o(i.Interface_Init) refers to interface.o(.data) for .data
    interface.o(i.LedAndBuzzerControl) refers to stm32f30x_gpio.o(i.GPIO_ResetBits) for GPIO_ResetBits
    interface.o(i.LedAndBuzzerControl) refers to stm32f30x_gpio.o(i.GPIO_SetBits) for GPIO_SetBits
    interface.o(i.LedAndBuzzerControl) refers to interface.o(i.Led_On) for Led_On
    interface.o(i.LedAndBuzzerControl) refers to interface.o(i.Led_Off) for Led_Off
    interface.o(i.LedAndBuzzerControl) refers to interface.o(i.Buzz_Off) for Buzz_Off
    interface.o(i.LedAndBuzzerControl) refers to interface.o(i.Buzz_On) for Buzz_On
    interface.o(i.LedAndBuzzerControl) refers to serial.o(.bss) for mcu_config
    interface.o(i.LedAndBuzzerControl) refers to power.o(.bss) for sensorIR
    interface.o(i.LedAndBuzzerControl) refers to interface.o(.data) for .data
    interface.o(i.LedAndBuzzerControl) refers to power.o(.data) for PowerData
    interface.o(i.Set_Led_Status) refers to interface.o(.data) for .data
    interface.o(i.TIM4_IRQHandler) refers to stm32f30x_tim.o(i.TIM_GetITStatus) for TIM_GetITStatus
    interface.o(i.TIM4_IRQHandler) refers to stm32f30x_tim.o(i.TIM_ClearITPendingBit) for TIM_ClearITPendingBit
    interface.o(i.UserTimerHanler) refers to interface.o(i.LedAndBuzzerControl) for LedAndBuzzerControl
    interface.o(i.UserTimer_Init) refers to rt_cmsis.o(i.osTimerCreate) for osTimerCreate
    interface.o(i.UserTimer_Init) refers to rt_cmsis.o(i.osTimerStart) for osTimerStart
    interface.o(i.UserTimer_Init) refers to interface.o(.constdata) for .constdata
    interface.o(i.UserTimer_Init) refers to interface.o(.data) for .data
    interface.o(i.get_buzer_state) refers to interface.o(.data) for .data
    interface.o(i.irqTimer_Init) refers to stm32f30x_rcc.o(i.RCC_APB1PeriphClockCmd) for RCC_APB1PeriphClockCmd
    interface.o(i.irqTimer_Init) refers to stm32f30x_tim.o(i.TIM_TimeBaseInit) for TIM_TimeBaseInit
    interface.o(i.irqTimer_Init) refers to stm32f30x_tim.o(i.TIM_UpdateRequestConfig) for TIM_UpdateRequestConfig
    interface.o(i.irqTimer_Init) refers to stm32f30x_tim.o(i.TIM_ClearITPendingBit) for TIM_ClearITPendingBit
    interface.o(i.irqTimer_Init) refers to serial.o(.bss) for mcu_config
    interface.o(i.is_buzz_disable) refers to interface.o(.data) for .data
    interface.o(i.reset_buzz_state) refers to interface.o(.data) for .data
    interface.o(.constdata) refers to interface.o(i.UserTimerHanler) for UserTimerHanler
    interface.o(.constdata) refers to interface.o(.bss) for os_timer_cb_UserTimer
    interface.o(.constdata) refers to interface.o(i.ButtonTimerHanler) for ButtonTimerHanler
    interface.o(.constdata) refers to interface.o(.bss) for os_timer_cb_ButtonTimer
    stm32f30x_it.o(i.BusFault_Handler) refers to serial.o(i.PrintError) for PrintError
    stm32f30x_it.o(i.DebugMon_Handler) refers to serial.o(i.PrintError) for PrintError
    stm32f30x_it.o(i.HardFault_Handler) refers to serial.o(i.PrintError) for PrintError
    stm32f30x_it.o(i.MemManage_Handler) refers to serial.o(i.PrintError) for PrintError
    stm32f30x_it.o(i.NMI_Handler) refers to serial.o(i.PrintError) for PrintError
    stm32f30x_it.o(i.UsageFault_Handler) refers to serial.o(i.PrintError) for PrintError
    flash.o(i.FLASH_WriteBufData) refers to stm32f30x_flash.o(i.FLASH_WaitForLastOperation) for FLASH_WaitForLastOperation
    flash.o(i.FLASH_WriteBufData) refers to flash.o(i.disable_irqn) for disable_irqn
    flash.o(i.FLASH_WriteBufData) refers to stm32f30x_flash.o(i.FLASH_Unlock) for FLASH_Unlock
    flash.o(i.FLASH_WriteBufData) refers to stm32f30x_flash.o(i.FLASH_ClearFlag) for FLASH_ClearFlag
    flash.o(i.FLASH_WriteBufData) refers to stm32f30x_flash.o(i.FLASH_ErasePage) for FLASH_ErasePage
    flash.o(i.FLASH_WriteBufData) refers to stm32f30x_flash.o(i.FLASH_ProgramWord) for FLASH_ProgramWord
    flash.o(i.FLASH_WriteBufData) refers to stm32f30x_flash.o(i.FLASH_Lock) for FLASH_Lock
    flash.o(i.FLASH_WriteBufData) refers to flash.o(i.enable_irqn) for enable_irqn
    flash.o(i.FLASH_WriteData) refers to stm32f30x_flash.o(i.FLASH_WaitForLastOperation) for FLASH_WaitForLastOperation
    flash.o(i.FLASH_WriteData) refers to flash.o(i.disable_irqn) for disable_irqn
    flash.o(i.FLASH_WriteData) refers to stm32f30x_flash.o(i.FLASH_Unlock) for FLASH_Unlock
    flash.o(i.FLASH_WriteData) refers to stm32f30x_flash.o(i.FLASH_ClearFlag) for FLASH_ClearFlag
    flash.o(i.FLASH_WriteData) refers to stm32f30x_flash.o(i.FLASH_ErasePage) for FLASH_ErasePage
    flash.o(i.FLASH_WriteData) refers to stm32f30x_flash.o(i.FLASH_Lock) for FLASH_Lock
    flash.o(i.FLASH_WriteData) refers to flash.o(i.enable_irqn) for enable_irqn
    flash.o(i.FLASH_WriteData) refers to stm32f30x_flash.o(i.FLASH_ProgramWord) for FLASH_ProgramWord
    flash.o(i.FLASH_WriteData) refers to rt_cmsis.o(i.osDelay) for osDelay
    flash.o(i.disable_irqn) refers to flash.o(i.__NVIC_DisableIRQ) for __NVIC_DisableIRQ
    flash.o(i.disable_irqn) refers to stm32f30x_usart.o(i.USART_Cmd) for USART_Cmd
    flash.o(i.enable_irqn) refers to stm32f30x_usart.o(i.USART_Cmd) for USART_Cmd
    flash.o(i.enable_irqn) refers to flash.o(i.__NVIC_EnableIRQ) for __NVIC_EnableIRQ
    stm32f30x_adc.o(i.ADC_DeInit) refers to stm32f30x_rcc.o(i.RCC_AHBPeriphResetCmd) for RCC_AHBPeriphResetCmd
    stm32f30x_can.o(i.CAN_DeInit) refers to stm32f30x_rcc.o(i.RCC_APB1PeriphResetCmd) for RCC_APB1PeriphResetCmd
    stm32f30x_can.o(i.CAN_GetITStatus) refers to stm32f30x_can.o(i.CheckITStatus) for CheckITStatus
    stm32f30x_dac.o(i.DAC_DeInit) refers to stm32f30x_rcc.o(i.RCC_APB1PeriphResetCmd) for RCC_APB1PeriphResetCmd
    stm32f30x_flash.o(i.FLASH_EraseAllPages) refers to stm32f30x_flash.o(i.FLASH_WaitForLastOperation) for FLASH_WaitForLastOperation
    stm32f30x_flash.o(i.FLASH_ErasePage) refers to stm32f30x_flash.o(i.FLASH_WaitForLastOperation) for FLASH_WaitForLastOperation
    stm32f30x_flash.o(i.FLASH_OB_BOOTConfig) refers to stm32f30x_flash.o(i.FLASH_WaitForLastOperation) for FLASH_WaitForLastOperation
    stm32f30x_flash.o(i.FLASH_OB_EnableWRP) refers to stm32f30x_flash.o(i.FLASH_WaitForLastOperation) for FLASH_WaitForLastOperation
    stm32f30x_flash.o(i.FLASH_OB_Erase) refers to stm32f30x_flash.o(i.FLASH_OB_GetRDP) for FLASH_OB_GetRDP
    stm32f30x_flash.o(i.FLASH_OB_Erase) refers to stm32f30x_flash.o(i.FLASH_WaitForLastOperation) for FLASH_WaitForLastOperation
    stm32f30x_flash.o(i.FLASH_OB_RDPConfig) refers to stm32f30x_flash.o(i.FLASH_WaitForLastOperation) for FLASH_WaitForLastOperation
    stm32f30x_flash.o(i.FLASH_OB_SRAMParityConfig) refers to stm32f30x_flash.o(i.FLASH_WaitForLastOperation) for FLASH_WaitForLastOperation
    stm32f30x_flash.o(i.FLASH_OB_UserConfig) refers to stm32f30x_flash.o(i.FLASH_WaitForLastOperation) for FLASH_WaitForLastOperation
    stm32f30x_flash.o(i.FLASH_OB_VDDAConfig) refers to stm32f30x_flash.o(i.FLASH_WaitForLastOperation) for FLASH_WaitForLastOperation
    stm32f30x_flash.o(i.FLASH_OB_WriteUser) refers to stm32f30x_flash.o(i.FLASH_WaitForLastOperation) for FLASH_WaitForLastOperation
    stm32f30x_flash.o(i.FLASH_ProgramHalfWord) refers to stm32f30x_flash.o(i.FLASH_WaitForLastOperation) for FLASH_WaitForLastOperation
    stm32f30x_flash.o(i.FLASH_ProgramOptionByteData) refers to stm32f30x_flash.o(i.FLASH_WaitForLastOperation) for FLASH_WaitForLastOperation
    stm32f30x_flash.o(i.FLASH_ProgramWord) refers to stm32f30x_flash.o(i.FLASH_WaitForLastOperation) for FLASH_WaitForLastOperation
    stm32f30x_flash.o(i.FLASH_WaitForLastOperation) refers to stm32f30x_flash.o(i.FLASH_GetStatus) for FLASH_GetStatus
    stm32f30x_gpio.o(i.GPIO_DeInit) refers to stm32f30x_rcc.o(i.RCC_AHBPeriphResetCmd) for RCC_AHBPeriphResetCmd
    stm32f30x_hrtim.o(i.HRTIM_DeInit) refers to stm32f30x_rcc.o(i.RCC_APB2PeriphResetCmd) for RCC_APB2PeriphResetCmd
    stm32f30x_hrtim.o(i.HRTIM_EventConfig) refers to stm32f30x_hrtim.o(i.HRTIM_ExternalEventConfig) for HRTIM_ExternalEventConfig
    stm32f30x_hrtim.o(i.HRTIM_SimpleBaseStart) refers to stm32f30x_hrtim.o(.data) for .data
    stm32f30x_hrtim.o(i.HRTIM_SimpleBaseStop) refers to stm32f30x_hrtim.o(.data) for .data
    stm32f30x_hrtim.o(i.HRTIM_SimpleBase_Init) refers to stm32f30x_hrtim.o(i.HRTIM_TimingUnitBase_Config) for HRTIM_TimingUnitBase_Config
    stm32f30x_hrtim.o(i.HRTIM_SimpleBase_Init) refers to stm32f30x_hrtim.o(i.HRTIM_MasterBase_Config) for HRTIM_MasterBase_Config
    stm32f30x_hrtim.o(i.HRTIM_SimpleCaptureChannelConfig) refers to stm32f30x_hrtim.o(i.HRTIM_ExternalEventConfig) for HRTIM_ExternalEventConfig
    stm32f30x_hrtim.o(i.HRTIM_SimpleCaptureStart) refers to stm32f30x_hrtim.o(.data) for .data
    stm32f30x_hrtim.o(i.HRTIM_SimpleCaptureStop) refers to stm32f30x_hrtim.o(.data) for .data
    stm32f30x_hrtim.o(i.HRTIM_SimpleCapture_Init) refers to stm32f30x_hrtim.o(i.HRTIM_TimingUnitBase_Config) for HRTIM_TimingUnitBase_Config
    stm32f30x_hrtim.o(i.HRTIM_SimpleOCChannelConfig) refers to stm32f30x_hrtim.o(i.HRTIM_CompareUnitConfig) for HRTIM_CompareUnitConfig
    stm32f30x_hrtim.o(i.HRTIM_SimpleOCChannelConfig) refers to stm32f30x_hrtim.o(i.HRTIM_OutputConfig) for HRTIM_OutputConfig
    stm32f30x_hrtim.o(i.HRTIM_SimpleOCStart) refers to stm32f30x_hrtim.o(.data) for .data
    stm32f30x_hrtim.o(i.HRTIM_SimpleOCStop) refers to stm32f30x_hrtim.o(.data) for .data
    stm32f30x_hrtim.o(i.HRTIM_SimpleOC_Init) refers to stm32f30x_hrtim.o(i.HRTIM_TimingUnitBase_Config) for HRTIM_TimingUnitBase_Config
    stm32f30x_hrtim.o(i.HRTIM_SimpleOnePulseChannelConfig) refers to stm32f30x_hrtim.o(i.HRTIM_CompareUnitConfig) for HRTIM_CompareUnitConfig
    stm32f30x_hrtim.o(i.HRTIM_SimpleOnePulseChannelConfig) refers to stm32f30x_hrtim.o(i.HRTIM_OutputConfig) for HRTIM_OutputConfig
    stm32f30x_hrtim.o(i.HRTIM_SimpleOnePulseChannelConfig) refers to stm32f30x_hrtim.o(i.HRTIM_ExternalEventConfig) for HRTIM_ExternalEventConfig
    stm32f30x_hrtim.o(i.HRTIM_SimpleOnePulseChannelConfig) refers to stm32f30x_hrtim.o(i.HRTIM_TIM_ResetConfig) for HRTIM_TIM_ResetConfig
    stm32f30x_hrtim.o(i.HRTIM_SimpleOnePulseStart) refers to stm32f30x_hrtim.o(.data) for .data
    stm32f30x_hrtim.o(i.HRTIM_SimpleOnePulseStop) refers to stm32f30x_hrtim.o(.data) for .data
    stm32f30x_hrtim.o(i.HRTIM_SimpleOnePulse_Init) refers to stm32f30x_hrtim.o(i.HRTIM_TimingUnitBase_Config) for HRTIM_TimingUnitBase_Config
    stm32f30x_hrtim.o(i.HRTIM_SimplePWMChannelConfig) refers to stm32f30x_hrtim.o(i.HRTIM_CompareUnitConfig) for HRTIM_CompareUnitConfig
    stm32f30x_hrtim.o(i.HRTIM_SimplePWMChannelConfig) refers to stm32f30x_hrtim.o(i.HRTIM_OutputConfig) for HRTIM_OutputConfig
    stm32f30x_hrtim.o(i.HRTIM_SimplePWMStart) refers to stm32f30x_hrtim.o(.data) for .data
    stm32f30x_hrtim.o(i.HRTIM_SimplePWMStop) refers to stm32f30x_hrtim.o(.data) for .data
    stm32f30x_hrtim.o(i.HRTIM_SimplePWM_Init) refers to stm32f30x_hrtim.o(i.HRTIM_TimingUnitBase_Config) for HRTIM_TimingUnitBase_Config
    stm32f30x_hrtim.o(i.HRTIM_WaveformOutputConfig) refers to stm32f30x_hrtim.o(i.HRTIM_OutputConfig) for HRTIM_OutputConfig
    stm32f30x_hrtim.o(i.HRTIM_Waveform_Init) refers to stm32f30x_hrtim.o(i.HRTIM_TimingUnitBase_Config) for HRTIM_TimingUnitBase_Config
    stm32f30x_hrtim.o(i.HRTIM_Waveform_Init) refers to stm32f30x_hrtim.o(i.HRTIM_TimingUnitWaveform_Config) for HRTIM_TimingUnitWaveform_Config
    stm32f30x_hrtim.o(i.HRTIM_Waveform_Init) refers to stm32f30x_hrtim.o(i.HRTIM_MasterBase_Config) for HRTIM_MasterBase_Config
    stm32f30x_i2c.o(i.I2C_DeInit) refers to stm32f30x_rcc.o(i.RCC_APB1PeriphResetCmd) for RCC_APB1PeriphResetCmd
    stm32f30x_pwr.o(i.PWR_DeInit) refers to stm32f30x_rcc.o(i.RCC_APB1PeriphResetCmd) for RCC_APB1PeriphResetCmd
    stm32f30x_rcc.o(i.RCC_GetClocksFreq) refers to stm32f30x_rcc.o(.data) for .data
    stm32f30x_rcc.o(i.RCC_WaitForHSEStartUp) refers to stm32f30x_rcc.o(i.RCC_GetFlagStatus) for RCC_GetFlagStatus
    stm32f30x_rtc.o(i.RTC_DeInit) refers to stm32f30x_rtc.o(i.RTC_EnterInitMode) for RTC_EnterInitMode
    stm32f30x_rtc.o(i.RTC_DeInit) refers to stm32f30x_rtc.o(i.RTC_WaitForSynchro) for RTC_WaitForSynchro
    stm32f30x_rtc.o(i.RTC_GetAlarm) refers to stm32f30x_rtc.o(i.RTC_Bcd2ToByte) for RTC_Bcd2ToByte
    stm32f30x_rtc.o(i.RTC_GetDate) refers to stm32f30x_rtc.o(i.RTC_Bcd2ToByte) for RTC_Bcd2ToByte
    stm32f30x_rtc.o(i.RTC_GetTime) refers to stm32f30x_rtc.o(i.RTC_Bcd2ToByte) for RTC_Bcd2ToByte
    stm32f30x_rtc.o(i.RTC_GetTimeStamp) refers to stm32f30x_rtc.o(i.RTC_Bcd2ToByte) for RTC_Bcd2ToByte
    stm32f30x_rtc.o(i.RTC_Init) refers to stm32f30x_rtc.o(i.RTC_EnterInitMode) for RTC_EnterInitMode
    stm32f30x_rtc.o(i.RTC_Init) refers to stm32f30x_rtc.o(i.RTC_ExitInitMode) for RTC_ExitInitMode
    stm32f30x_rtc.o(i.RTC_RefClockCmd) refers to stm32f30x_rtc.o(i.RTC_EnterInitMode) for RTC_EnterInitMode
    stm32f30x_rtc.o(i.RTC_RefClockCmd) refers to stm32f30x_rtc.o(i.RTC_ExitInitMode) for RTC_ExitInitMode
    stm32f30x_rtc.o(i.RTC_SetAlarm) refers to stm32f30x_rtc.o(i.RTC_Bcd2ToByte) for RTC_Bcd2ToByte
    stm32f30x_rtc.o(i.RTC_SetAlarm) refers to stm32f30x_rtc.o(i.RTC_ByteToBcd2) for RTC_ByteToBcd2
    stm32f30x_rtc.o(i.RTC_SetDate) refers to stm32f30x_rtc.o(i.RTC_Bcd2ToByte) for RTC_Bcd2ToByte
    stm32f30x_rtc.o(i.RTC_SetDate) refers to stm32f30x_rtc.o(i.RTC_ByteToBcd2) for RTC_ByteToBcd2
    stm32f30x_rtc.o(i.RTC_SetDate) refers to stm32f30x_rtc.o(i.RTC_EnterInitMode) for RTC_EnterInitMode
    stm32f30x_rtc.o(i.RTC_SetDate) refers to stm32f30x_rtc.o(i.RTC_ExitInitMode) for RTC_ExitInitMode
    stm32f30x_rtc.o(i.RTC_SetDate) refers to stm32f30x_rtc.o(i.RTC_WaitForSynchro) for RTC_WaitForSynchro
    stm32f30x_rtc.o(i.RTC_SetTime) refers to stm32f30x_rtc.o(i.RTC_Bcd2ToByte) for RTC_Bcd2ToByte
    stm32f30x_rtc.o(i.RTC_SetTime) refers to stm32f30x_rtc.o(i.RTC_ByteToBcd2) for RTC_ByteToBcd2
    stm32f30x_rtc.o(i.RTC_SetTime) refers to stm32f30x_rtc.o(i.RTC_EnterInitMode) for RTC_EnterInitMode
    stm32f30x_rtc.o(i.RTC_SetTime) refers to stm32f30x_rtc.o(i.RTC_ExitInitMode) for RTC_ExitInitMode
    stm32f30x_rtc.o(i.RTC_SetTime) refers to stm32f30x_rtc.o(i.RTC_WaitForSynchro) for RTC_WaitForSynchro
    stm32f30x_rtc.o(i.RTC_SynchroShiftConfig) refers to stm32f30x_rtc.o(i.RTC_WaitForSynchro) for RTC_WaitForSynchro
    stm32f30x_spi.o(i.I2S_Init) refers to stm32f30x_rcc.o(i.RCC_GetClocksFreq) for RCC_GetClocksFreq
    stm32f30x_spi.o(i.SPI_I2S_DeInit) refers to stm32f30x_rcc.o(i.RCC_APB1PeriphResetCmd) for RCC_APB1PeriphResetCmd
    stm32f30x_spi.o(i.SPI_I2S_DeInit) refers to stm32f30x_rcc.o(i.RCC_APB2PeriphResetCmd) for RCC_APB2PeriphResetCmd
    stm32f30x_tim.o(i.TIM_DeInit) refers to stm32f30x_rcc.o(i.RCC_APB1PeriphResetCmd) for RCC_APB1PeriphResetCmd
    stm32f30x_tim.o(i.TIM_DeInit) refers to stm32f30x_rcc.o(i.RCC_APB2PeriphResetCmd) for RCC_APB2PeriphResetCmd
    stm32f30x_tim.o(i.TIM_ETRClockMode1Config) refers to stm32f30x_tim.o(i.TIM_ETRConfig) for TIM_ETRConfig
    stm32f30x_tim.o(i.TIM_ETRClockMode2Config) refers to stm32f30x_tim.o(i.TIM_ETRConfig) for TIM_ETRConfig
    stm32f30x_tim.o(i.TIM_ICInit) refers to stm32f30x_tim.o(i.TIM_SetIC4Prescaler) for TIM_SetIC4Prescaler
    stm32f30x_tim.o(i.TIM_ICInit) refers to stm32f30x_tim.o(i.TI1_Config) for TI1_Config
    stm32f30x_tim.o(i.TIM_ICInit) refers to stm32f30x_tim.o(i.TIM_SetIC1Prescaler) for TIM_SetIC1Prescaler
    stm32f30x_tim.o(i.TIM_ICInit) refers to stm32f30x_tim.o(i.TI2_Config) for TI2_Config
    stm32f30x_tim.o(i.TIM_ICInit) refers to stm32f30x_tim.o(i.TIM_SetIC2Prescaler) for TIM_SetIC2Prescaler
    stm32f30x_tim.o(i.TIM_ICInit) refers to stm32f30x_tim.o(i.TIM_SetIC3Prescaler) for TIM_SetIC3Prescaler
    stm32f30x_tim.o(i.TIM_ITRxExternalClockConfig) refers to stm32f30x_tim.o(i.TIM_SelectInputTrigger) for TIM_SelectInputTrigger
    stm32f30x_tim.o(i.TIM_PWMIConfig) refers to stm32f30x_tim.o(i.TI2_Config) for TI2_Config
    stm32f30x_tim.o(i.TIM_PWMIConfig) refers to stm32f30x_tim.o(i.TIM_SetIC2Prescaler) for TIM_SetIC2Prescaler
    stm32f30x_tim.o(i.TIM_PWMIConfig) refers to stm32f30x_tim.o(i.TI1_Config) for TI1_Config
    stm32f30x_tim.o(i.TIM_PWMIConfig) refers to stm32f30x_tim.o(i.TIM_SetIC1Prescaler) for TIM_SetIC1Prescaler
    stm32f30x_tim.o(i.TIM_TIxExternalClockConfig) refers to stm32f30x_tim.o(i.TI1_Config) for TI1_Config
    stm32f30x_tim.o(i.TIM_TIxExternalClockConfig) refers to stm32f30x_tim.o(i.TIM_SelectInputTrigger) for TIM_SelectInputTrigger
    stm32f30x_tim.o(i.TIM_TIxExternalClockConfig) refers to stm32f30x_tim.o(i.TI2_Config) for TI2_Config
    stm32f30x_usart.o(i.USART_DeInit) refers to stm32f30x_rcc.o(i.RCC_APB2PeriphResetCmd) for RCC_APB2PeriphResetCmd
    stm32f30x_usart.o(i.USART_DeInit) refers to stm32f30x_rcc.o(i.RCC_APB1PeriphResetCmd) for RCC_APB1PeriphResetCmd
    stm32f30x_usart.o(i.USART_Init) refers to stm32f30x_rcc.o(i.RCC_GetClocksFreq) for RCC_GetClocksFreq
    stm32f30x_wwdg.o(i.WWDG_DeInit) refers to stm32f30x_rcc.o(i.RCC_APB1PeriphResetCmd) for RCC_APB1PeriphResetCmd
    rtx_conf_cm.o(.ARM.Collect$$$$000000FF) refers to rt_cmsis.o(i.osKernelInitialize) for osKernelInitialize
    rtx_conf_cm.o(.ARM.Collect$$$$000000FF) refers to rt_cmsis.o(i.osThreadCreate) for osThreadCreate
    rtx_conf_cm.o(.ARM.Collect$$$$000000FF) refers to rt_cmsis.o(i.osKernelStart) for osKernelStart
    rtx_conf_cm.o(.ARM.Collect$$$$000000FF) refers to rtx_conf_cm.o(.constdata) for .constdata
    rtx_conf_cm.o(i.os_error) refers to serial.o(i.PrintError) for PrintError
    rtx_conf_cm.o(.constdata) refers to main.o(i.main) for main
    rtx_conf_cm.o(.constdata) refers to rt_cmsis.o(i.osTimerThread) for osTimerThread
    rtx_conf_cm.o(.constdata) refers to rtx_conf_cm.o(.bss) for os_messageQ_q_osTimerMessageQ
    startup_stm32f302xc.o(RESET) refers to startup_stm32f302xc.o(STACK) for __initial_sp
    startup_stm32f302xc.o(RESET) refers to startup_stm32f302xc.o(.text) for Reset_Handler
    startup_stm32f302xc.o(RESET) refers to stm32f30x_it.o(i.NMI_Handler) for NMI_Handler
    startup_stm32f302xc.o(RESET) refers to stm32f30x_it.o(i.HardFault_Handler) for HardFault_Handler
    startup_stm32f302xc.o(RESET) refers to stm32f30x_it.o(i.MemManage_Handler) for MemManage_Handler
    startup_stm32f302xc.o(RESET) refers to stm32f30x_it.o(i.BusFault_Handler) for BusFault_Handler
    startup_stm32f302xc.o(RESET) refers to stm32f30x_it.o(i.UsageFault_Handler) for UsageFault_Handler
    startup_stm32f302xc.o(RESET) refers to hal_cm4.o(.emb_text) for SVC_Handler
    startup_stm32f302xc.o(RESET) refers to stm32f30x_it.o(i.DebugMon_Handler) for DebugMon_Handler
    startup_stm32f302xc.o(RESET) refers to power.o(i.EXTI0_IRQHandler) for EXTI0_IRQHandler
    startup_stm32f302xc.o(RESET) refers to power.o(i.DMA1_Channel1_IRQHandler) for DMA1_Channel1_IRQHandler
    startup_stm32f302xc.o(RESET) refers to canbus.o(i.USB_LP_CAN1_RX0_IRQHandler) for USB_LP_CAN1_RX0_IRQHandler
    startup_stm32f302xc.o(RESET) refers to power.o(i.TIM3_IRQHandler) for TIM3_IRQHandler
    startup_stm32f302xc.o(RESET) refers to interface.o(i.TIM4_IRQHandler) for TIM4_IRQHandler
    startup_stm32f302xc.o(RESET) refers to serial.o(i.USART1_IRQHandler) for USART1_IRQHandler
    startup_stm32f302xc.o(RESET) refers to digital.o(i.USART2_IRQHandler) for USART2_IRQHandler
    startup_stm32f302xc.o(RESET) refers to power.o(i.EXTI15_10_IRQHandler) for EXTI15_10_IRQHandler
    startup_stm32f302xc.o(RESET) refers to digital.o(i.UART4_IRQHandler) for UART4_IRQHandler
    startup_stm32f302xc.o(.text) refers to system_stm32f3xx.o(i.SystemInit) for SystemInit
    startup_stm32f302xc.o(.text) refers to entry.o(.ARM.Collect$$$$00000000) for __main
    system_stm32f3xx.o(i.SystemCoreClockUpdate) refers to system_stm32f3xx.o(.data) for .data
    system_stm32f3xx.o(i.SystemInit) refers to system_stm32f3xx.o(i.SetSysClock) for SetSysClock
    rt_cmsis.o(i.isrMessageGet) refers to rt_mailbox.o(i.isr_mbx_receive) for isr_mbx_receive
    rt_cmsis.o(i.isrMessagePut) refers to rt_mailbox.o(i.rt_mbx_check) for rt_mbx_check
    rt_cmsis.o(i.isrMessagePut) refers to rt_mailbox.o(i.isr_mbx_send) for isr_mbx_send
    rt_cmsis.o(i.isrSemaphoreRelease) refers to rt_cmsis.o(i.rt_id2obj) for rt_id2obj
    rt_cmsis.o(i.isrSemaphoreRelease) refers to rt_semaphore.o(i.isr_sem_send) for isr_sem_send
    rt_cmsis.o(i.isrSignalSet) refers to rt_cmsis.o(i.rt_tid2ptcb) for rt_tid2ptcb
    rt_cmsis.o(i.isrSignalSet) refers to rt_event.o(i.isr_evt_set) for isr_evt_set
    rt_cmsis.o(i.osDelay) refers to rt_cmsis.o(i.svcDelay) for svcDelay
    rt_cmsis.o(i.osKernelInitialize) refers to rt_cmsis.o(i.svcKernelInitialize) for svcKernelInitialize
    rt_cmsis.o(i.osKernelRunning) refers to rt_cmsis.o(i.svcKernelRunning) for svcKernelRunning
    rt_cmsis.o(i.osKernelRunning) refers to rt_cmsis.o(.data) for .data
    rt_cmsis.o(i.osKernelStart) refers to rtx_conf_cm.o(.constdata) for os_flags
    rt_cmsis.o(i.osKernelStart) refers to rt_cmsis.o(i.svcKernelStart) for svcKernelStart
    rt_cmsis.o(i.osKernelSysTick) refers to rt_cmsis.o(i.svcKernelSysTick) for svcKernelSysTick
    rt_cmsis.o(i.osMailAlloc) refers to rt_cmsis.o(i.sysMailAlloc) for sysMailAlloc
    rt_cmsis.o(i.osMailCAlloc) refers to rt_cmsis.o(i.sysMailAlloc) for sysMailAlloc
    rt_cmsis.o(i.osMailCAlloc) refers to rt_cmsis.o(i.rt_clr_box) for rt_clr_box
    rt_cmsis.o(i.osMailCreate) refers to rt_cmsis.o(i.svcMailCreate) for svcMailCreate
    rt_cmsis.o(i.osMailCreate) refers to rt_cmsis.o(.data) for .data
    rt_cmsis.o(i.osMailFree) refers to rt_cmsis.o(i.sysMailFree) for sysMailFree
    rt_cmsis.o(i.osMailGet) refers to rt_cmsis.o(i.osMessageGet) for osMessageGet
    rt_cmsis.o(i.osMailPut) refers to rt_cmsis.o(i.osMessagePut) for osMessagePut
    rt_cmsis.o(i.osMessageCreate) refers to rt_cmsis.o(i.svcMessageCreate) for svcMessageCreate
    rt_cmsis.o(i.osMessageCreate) refers to rt_cmsis.o(.data) for .data
    rt_cmsis.o(i.osMessageGet) refers to rt_cmsis.o(i.isrMessageGet) for isrMessageGet
    rt_cmsis.o(i.osMessageGet) refers to rt_cmsis.o(i.svcMessageGet) for svcMessageGet
    rt_cmsis.o(i.osMessagePut) refers to rt_cmsis.o(i.isrMessagePut) for isrMessagePut
    rt_cmsis.o(i.osMessagePut) refers to rt_cmsis.o(i.svcMessagePut) for svcMessagePut
    rt_cmsis.o(i.osMutexCreate) refers to rt_cmsis.o(i.svcMutexCreate) for svcMutexCreate
    rt_cmsis.o(i.osMutexCreate) refers to rt_cmsis.o(.data) for .data
    rt_cmsis.o(i.osMutexDelete) refers to rt_cmsis.o(i.svcMutexDelete) for svcMutexDelete
    rt_cmsis.o(i.osMutexRelease) refers to rt_cmsis.o(i.svcMutexRelease) for svcMutexRelease
    rt_cmsis.o(i.osMutexWait) refers to rt_cmsis.o(i.svcMutexWait) for svcMutexWait
    rt_cmsis.o(i.osPoolAlloc) refers to rt_cmsis.o(i.sysPoolAlloc) for sysPoolAlloc
    rt_cmsis.o(i.osPoolCAlloc) refers to rt_cmsis.o(i.rt_clr_box) for rt_clr_box
    rt_cmsis.o(i.osPoolCAlloc) refers to rt_cmsis.o(i.sysPoolAlloc) for sysPoolAlloc
    rt_cmsis.o(i.osPoolCreate) refers to rt_cmsis.o(i.svcPoolCreate) for svcPoolCreate
    rt_cmsis.o(i.osPoolCreate) refers to rt_cmsis.o(.data) for .data
    rt_cmsis.o(i.osPoolFree) refers to rt_cmsis.o(i.sysPoolFree) for sysPoolFree
    rt_cmsis.o(i.osSemaphoreCreate) refers to rt_cmsis.o(i.svcSemaphoreCreate) for svcSemaphoreCreate
    rt_cmsis.o(i.osSemaphoreCreate) refers to rt_cmsis.o(.data) for .data
    rt_cmsis.o(i.osSemaphoreDelete) refers to rt_cmsis.o(i.svcSemaphoreDelete) for svcSemaphoreDelete
    rt_cmsis.o(i.osSemaphoreRelease) refers to rt_cmsis.o(i.isrSemaphoreRelease) for isrSemaphoreRelease
    rt_cmsis.o(i.osSemaphoreRelease) refers to rt_cmsis.o(i.svcSemaphoreRelease) for svcSemaphoreRelease
    rt_cmsis.o(i.osSemaphoreWait) refers to rt_cmsis.o(i.svcSemaphoreWait) for svcSemaphoreWait
    rt_cmsis.o(i.osSignalClear) refers to rt_cmsis.o(i.svcSignalClear) for svcSignalClear
    rt_cmsis.o(i.osSignalSet) refers to rt_cmsis.o(i.isrSignalSet) for isrSignalSet
    rt_cmsis.o(i.osSignalSet) refers to rt_cmsis.o(i.svcSignalSet) for svcSignalSet
    rt_cmsis.o(i.osSignalWait) refers to rt_cmsis.o(i.svcSignalWait) for svcSignalWait
    rt_cmsis.o(i.osThreadCreate) refers to rt_cmsis.o(i.svcThreadCreate) for svcThreadCreate
    rt_cmsis.o(i.osThreadCreate) refers to rt_cmsis.o(.data) for .data
    rt_cmsis.o(i.osThreadExit) refers to rt_cmsis.o(i.svcThreadGetId) for svcThreadGetId
    rt_cmsis.o(i.osThreadExit) refers to rt_cmsis.o(i.svcThreadTerminate) for svcThreadTerminate
    rt_cmsis.o(i.osThreadGetId) refers to rt_cmsis.o(i.svcThreadGetId) for svcThreadGetId
    rt_cmsis.o(i.osThreadGetPriority) refers to rt_cmsis.o(i.svcThreadGetPriority) for svcThreadGetPriority
    rt_cmsis.o(i.osThreadSetPriority) refers to rt_cmsis.o(i.svcThreadSetPriority) for svcThreadSetPriority
    rt_cmsis.o(i.osThreadTerminate) refers to rt_cmsis.o(i.svcThreadTerminate) for svcThreadTerminate
    rt_cmsis.o(i.osThreadYield) refers to rt_cmsis.o(i.svcThreadYield) for svcThreadYield
    rt_cmsis.o(i.osTimerCall) refers to rt_cmsis.o(i.svcTimerCall) for svcTimerCall
    rt_cmsis.o(i.osTimerCreate) refers to rt_cmsis.o(i.svcTimerCreate) for svcTimerCreate
    rt_cmsis.o(i.osTimerCreate) refers to rt_cmsis.o(.data) for .data
    rt_cmsis.o(i.osTimerDelete) refers to rt_cmsis.o(i.svcTimerDelete) for svcTimerDelete
    rt_cmsis.o(i.osTimerStart) refers to rt_cmsis.o(i.svcTimerStart) for svcTimerStart
    rt_cmsis.o(i.osTimerStop) refers to rt_cmsis.o(i.svcTimerStop) for svcTimerStop
    rt_cmsis.o(i.osTimerThread) refers to rt_cmsis.o(i.osMessageGet) for osMessageGet
    rt_cmsis.o(i.osTimerThread) refers to rt_cmsis.o(i.osTimerCall) for osTimerCall
    rt_cmsis.o(i.osTimerThread) refers to rtx_conf_cm.o(.data) for osMessageQId_osTimerMessageQ
    rt_cmsis.o(i.os_resume) refers to rt_system.o(i.rt_resume) for rt_resume
    rt_cmsis.o(i.os_suspend) refers to rt_system.o(i.rt_suspend) for rt_suspend
    rt_cmsis.o(i.rt_ms2tick) refers to rtx_conf_cm.o(.constdata) for os_clockrate
    rt_cmsis.o(i.rt_timer_insert) refers to rt_cmsis.o(.data) for .data
    rt_cmsis.o(i.rt_timer_remove) refers to rt_cmsis.o(.data) for .data
    rt_cmsis.o(i.svcDelay) refers to rt_cmsis.o(i.rt_ms2tick) for rt_ms2tick
    rt_cmsis.o(i.svcDelay) refers to rt_time.o(i.rt_dly_wait) for rt_dly_wait
    rt_cmsis.o(i.svcKernelInitialize) refers to rt_memory.o(i.rt_init_mem) for rt_init_mem
    rt_cmsis.o(i.svcKernelInitialize) refers to rt_task.o(i.rt_sys_init) for rt_sys_init
    rt_cmsis.o(i.svcKernelInitialize) refers to rt_cmsis.o(i.svcMessageCreate) for svcMessageCreate
    rt_cmsis.o(i.svcKernelInitialize) refers to rt_cmsis.o(i.svcThreadCreate) for svcThreadCreate
    rt_cmsis.o(i.svcKernelInitialize) refers to rt_cmsis.o(.data) for .data
    rt_cmsis.o(i.svcKernelInitialize) refers to rtx_conf_cm.o(.bss) for os_stack_mem
    rt_cmsis.o(i.svcKernelInitialize) refers to rtx_conf_cm.o(.constdata) for os_stack_sz
    rt_cmsis.o(i.svcKernelInitialize) refers to rt_task.o(.data) for os_tsk
    rt_cmsis.o(i.svcKernelInitialize) refers to rtx_conf_cm.o(.constdata) for os_messageQ_def_osTimerMessageQ
    rt_cmsis.o(i.svcKernelInitialize) refers to rtx_conf_cm.o(.data) for osMessageQId_osTimerMessageQ
    rt_cmsis.o(i.svcKernelInitialize) refers to rtx_conf_cm.o(.constdata) for os_thread_def_osTimerThread
    rt_cmsis.o(i.svcKernelInitialize) refers to rtx_conf_cm.o(.data) for osThreadId_osTimerThread
    rt_cmsis.o(i.svcKernelRunning) refers to rt_cmsis.o(.data) for .data
    rt_cmsis.o(i.svcKernelStart) refers to rt_task.o(i.rt_tsk_prio) for rt_tsk_prio
    rt_cmsis.o(i.svcKernelStart) refers to rt_task.o(i.rt_sys_start) for rt_sys_start
    rt_cmsis.o(i.svcKernelStart) refers to rt_cmsis.o(.data) for .data
    rt_cmsis.o(i.svcKernelStart) refers to rt_task.o(.data) for os_tsk
    rt_cmsis.o(i.svcKernelSysTick) refers to rt_system.o(i.os_tick_val) for os_tick_val
    rt_cmsis.o(i.svcKernelSysTick) refers to rt_system.o(i.os_tick_ovf) for os_tick_ovf
    rt_cmsis.o(i.svcKernelSysTick) refers to rtx_conf_cm.o(.constdata) for os_trv
    rt_cmsis.o(i.svcKernelSysTick) refers to rt_time.o(.data) for os_time
    rt_cmsis.o(i.svcMailCreate) refers to rt_membox.o(i._init_box) for _init_box
    rt_cmsis.o(i.svcMailCreate) refers to rt_mailbox.o(i.rt_mbx_init) for rt_mbx_init
    rt_cmsis.o(i.svcMessageCreate) refers to rt_mailbox.o(i.rt_mbx_init) for rt_mbx_init
    rt_cmsis.o(i.svcMessageGet) refers to rt_cmsis.o(i.rt_ms2tick) for rt_ms2tick
    rt_cmsis.o(i.svcMessageGet) refers to rt_mailbox.o(i.rt_mbx_wait) for rt_mbx_wait
    rt_cmsis.o(i.svcMessagePut) refers to rt_cmsis.o(i.rt_ms2tick) for rt_ms2tick
    rt_cmsis.o(i.svcMessagePut) refers to rt_mailbox.o(i.rt_mbx_send) for rt_mbx_send
    rt_cmsis.o(i.svcMutexCreate) refers to rt_mutex.o(i.rt_mut_init) for rt_mut_init
    rt_cmsis.o(i.svcMutexDelete) refers to rt_cmsis.o(i.rt_id2obj) for rt_id2obj
    rt_cmsis.o(i.svcMutexDelete) refers to rt_mutex.o(i.rt_mut_delete) for rt_mut_delete
    rt_cmsis.o(i.svcMutexRelease) refers to rt_cmsis.o(i.rt_id2obj) for rt_id2obj
    rt_cmsis.o(i.svcMutexRelease) refers to rt_mutex.o(i.rt_mut_release) for rt_mut_release
    rt_cmsis.o(i.svcMutexWait) refers to rt_cmsis.o(i.rt_id2obj) for rt_id2obj
    rt_cmsis.o(i.svcMutexWait) refers to rt_cmsis.o(i.rt_ms2tick) for rt_ms2tick
    rt_cmsis.o(i.svcMutexWait) refers to rt_mutex.o(i.rt_mut_wait) for rt_mut_wait
    rt_cmsis.o(i.svcPoolCreate) refers to rt_membox.o(i._init_box) for _init_box
    rt_cmsis.o(i.svcSemaphoreCreate) refers to rt_semaphore.o(i.rt_sem_init) for rt_sem_init
    rt_cmsis.o(i.svcSemaphoreDelete) refers to rt_cmsis.o(i.rt_id2obj) for rt_id2obj
    rt_cmsis.o(i.svcSemaphoreDelete) refers to rt_semaphore.o(i.rt_sem_delete) for rt_sem_delete
    rt_cmsis.o(i.svcSemaphoreRelease) refers to rt_cmsis.o(i.rt_id2obj) for rt_id2obj
    rt_cmsis.o(i.svcSemaphoreRelease) refers to rt_semaphore.o(i.rt_sem_send) for rt_sem_send
    rt_cmsis.o(i.svcSemaphoreWait) refers to rt_cmsis.o(i.rt_id2obj) for rt_id2obj
    rt_cmsis.o(i.svcSemaphoreWait) refers to rt_cmsis.o(i.rt_ms2tick) for rt_ms2tick
    rt_cmsis.o(i.svcSemaphoreWait) refers to rt_semaphore.o(i.rt_sem_wait) for rt_sem_wait
    rt_cmsis.o(i.svcSignalClear) refers to rt_cmsis.o(i.rt_tid2ptcb) for rt_tid2ptcb
    rt_cmsis.o(i.svcSignalClear) refers to rt_event.o(i.rt_evt_clr) for rt_evt_clr
    rt_cmsis.o(i.svcSignalSet) refers to rt_cmsis.o(i.rt_tid2ptcb) for rt_tid2ptcb
    rt_cmsis.o(i.svcSignalSet) refers to rt_event.o(i.rt_evt_set) for rt_evt_set
    rt_cmsis.o(i.svcSignalWait) refers to rt_cmsis.o(i.rt_ms2tick) for rt_ms2tick
    rt_cmsis.o(i.svcSignalWait) refers to rt_event.o(i.rt_evt_wait) for rt_evt_wait
    rt_cmsis.o(i.svcSignalWait) refers to rt_task.o(.data) for os_tsk
    rt_cmsis.o(i.svcThreadCreate) refers to rt_memory.o(i.rt_alloc_mem) for rt_alloc_mem
    rt_cmsis.o(i.svcThreadCreate) refers to rt_task.o(i.rt_tsk_create) for rt_tsk_create
    rt_cmsis.o(i.svcThreadCreate) refers to rt_memory.o(i.rt_free_mem) for rt_free_mem
    rt_cmsis.o(i.svcThreadCreate) refers to rtx_conf_cm.o(.bss) for os_stack_mem
    rt_cmsis.o(i.svcThreadCreate) refers to rtx_conf_cm.o(.bss) for os_active_TCB
    rt_cmsis.o(i.svcThreadCreate) refers to rt_cmsis.o(i.osThreadExit) for osThreadExit
    rt_cmsis.o(i.svcThreadGetId) refers to rt_task.o(i.rt_tsk_self) for rt_tsk_self
    rt_cmsis.o(i.svcThreadGetId) refers to rtx_conf_cm.o(.bss) for os_active_TCB
    rt_cmsis.o(i.svcThreadGetPriority) refers to rt_cmsis.o(i.rt_tid2ptcb) for rt_tid2ptcb
    rt_cmsis.o(i.svcThreadSetPriority) refers to rt_cmsis.o(i.rt_tid2ptcb) for rt_tid2ptcb
    rt_cmsis.o(i.svcThreadSetPriority) refers to rt_task.o(i.rt_tsk_prio) for rt_tsk_prio
    rt_cmsis.o(i.svcThreadTerminate) refers to rt_cmsis.o(i.rt_tid2ptcb) for rt_tid2ptcb
    rt_cmsis.o(i.svcThreadTerminate) refers to rt_task.o(i.rt_tsk_delete) for rt_tsk_delete
    rt_cmsis.o(i.svcThreadTerminate) refers to rt_memory.o(i.rt_free_mem) for rt_free_mem
    rt_cmsis.o(i.svcThreadTerminate) refers to rtx_conf_cm.o(.bss) for os_stack_mem
    rt_cmsis.o(i.svcThreadYield) refers to rt_task.o(i.rt_tsk_pass) for rt_tsk_pass
    rt_cmsis.o(i.svcTimerCall) refers to rt_cmsis.o(i.rt_id2obj) for rt_id2obj
    rt_cmsis.o(i.svcTimerCreate) refers to rtx_conf_cm.o(.data) for osThreadId_osTimerThread
    rt_cmsis.o(i.svcTimerDelete) refers to rt_cmsis.o(i.rt_id2obj) for rt_id2obj
    rt_cmsis.o(i.svcTimerDelete) refers to rt_cmsis.o(i.rt_timer_remove) for rt_timer_remove
    rt_cmsis.o(i.svcTimerStart) refers to rt_cmsis.o(i.rt_id2obj) for rt_id2obj
    rt_cmsis.o(i.svcTimerStart) refers to uldiv.o(.text) for __aeabi_uldivmod
    rt_cmsis.o(i.svcTimerStart) refers to rt_cmsis.o(i.rt_timer_remove) for rt_timer_remove
    rt_cmsis.o(i.svcTimerStart) refers to rt_cmsis.o(i.rt_timer_insert) for rt_timer_insert
    rt_cmsis.o(i.svcTimerStart) refers to rtx_conf_cm.o(.constdata) for os_clockrate
    rt_cmsis.o(i.svcTimerStop) refers to rt_cmsis.o(i.rt_id2obj) for rt_id2obj
    rt_cmsis.o(i.svcTimerStop) refers to rt_cmsis.o(i.rt_timer_remove) for rt_timer_remove
    rt_cmsis.o(i.sysMailAlloc) refers to rt_membox.o(i.rt_alloc_box) for rt_alloc_box
    rt_cmsis.o(i.sysMailAlloc) refers to rt_list.o(i.rt_put_prio) for rt_put_prio
    rt_cmsis.o(i.sysMailAlloc) refers to rt_cmsis.o(i.rt_ms2tick) for rt_ms2tick
    rt_cmsis.o(i.sysMailAlloc) refers to rt_task.o(i.rt_block) for rt_block
    rt_cmsis.o(i.sysMailAlloc) refers to rt_task.o(.data) for os_tsk
    rt_cmsis.o(i.sysMailFree) refers to rt_membox.o(i.rt_free_box) for rt_free_box
    rt_cmsis.o(i.sysMailFree) refers to rt_list.o(i.rt_psq_enq) for rt_psq_enq
    rt_cmsis.o(i.sysMailFree) refers to rt_system.o(i.rt_psh_req) for rt_psh_req
    rt_cmsis.o(i.sysMailFree) refers to rt_membox.o(i.rt_alloc_box) for rt_alloc_box
    rt_cmsis.o(i.sysMailFree) refers to rt_list.o(i.rt_get_first) for rt_get_first
    rt_cmsis.o(i.sysMailFree) refers to hal_cm.o(i.rt_ret_val) for rt_ret_val
    rt_cmsis.o(i.sysMailFree) refers to rt_list.o(i.rt_rmv_dly) for rt_rmv_dly
    rt_cmsis.o(i.sysMailFree) refers to rt_task.o(i.rt_dispatch) for rt_dispatch
    rt_cmsis.o(i.sysPoolAlloc) refers to rt_membox.o(i.rt_alloc_box) for rt_alloc_box
    rt_cmsis.o(i.sysPoolFree) refers to rt_membox.o(i.rt_free_box) for rt_free_box
    rt_cmsis.o(i.sysTimerTick) refers to rt_cmsis.o(i.isrMessagePut) for isrMessagePut
    rt_cmsis.o(i.sysTimerTick) refers to rtx_conf_cm.o(i.os_error) for os_error
    rt_cmsis.o(i.sysTimerTick) refers to rt_cmsis.o(i.rt_timer_insert) for rt_timer_insert
    rt_cmsis.o(i.sysTimerTick) refers to rt_cmsis.o(.data) for .data
    rt_cmsis.o(i.sysTimerTick) refers to rtx_conf_cm.o(.data) for osMessageQId_osTimerMessageQ
    rt_cmsis.o(i.sysUserTimerUpdate) refers to rt_cmsis.o(i.sysTimerTick) for sysTimerTick
    rt_cmsis.o(i.sysUserTimerUpdate) refers to rt_cmsis.o(.data) for .data
    rt_cmsis.o(i.sysUserTimerWakeupTime) refers to rt_cmsis.o(.data) for .data
    rt_task.o(i.rt_block) refers to rt_list.o(i.rt_put_dly) for rt_put_dly
    rt_task.o(i.rt_block) refers to rt_list.o(i.rt_get_first) for rt_get_first
    rt_task.o(i.rt_block) refers to rt_task.o(i.rt_switch_req) for rt_switch_req
    rt_task.o(i.rt_block) refers to rt_task.o(.data) for .data
    rt_task.o(i.rt_block) refers to rt_list.o(.bss) for os_rdy
    rt_task.o(i.rt_dispatch) refers to rt_list.o(i.rt_put_rdy_first) for rt_put_rdy_first
    rt_task.o(i.rt_dispatch) refers to rt_task.o(i.rt_switch_req) for rt_switch_req
    rt_task.o(i.rt_dispatch) refers to rt_list.o(i.rt_get_first) for rt_get_first
    rt_task.o(i.rt_dispatch) refers to rt_list.o(i.rt_put_prio) for rt_put_prio
    rt_task.o(i.rt_dispatch) refers to rt_task.o(.data) for .data
    rt_task.o(i.rt_dispatch) refers to rt_list.o(.bss) for os_rdy
    rt_task.o(i.rt_init_context) refers to rt_membox.o(i.rt_alloc_box) for rt_alloc_box
    rt_task.o(i.rt_init_context) refers to hal_cm.o(i.rt_init_stack) for rt_init_stack
    rt_task.o(i.rt_init_context) refers to rtx_conf_cm.o(.bss) for mp_stk
    rt_task.o(i.rt_switch_req) refers to hal_cm.o(i.dbg_task_switch) for dbg_task_switch
    rt_task.o(i.rt_switch_req) refers to rt_task.o(.data) for .data
    rt_task.o(i.rt_switch_req) refers to hal_cm.o(.data) for dbg_msg
    rt_task.o(i.rt_sys_init) refers to hal_cm.o(i.dbg_init) for dbg_init
    rt_task.o(i.rt_sys_init) refers to rt_membox.o(i._init_box) for _init_box
    rt_task.o(i.rt_sys_init) refers to rt_task.o(i.rt_init_context) for rt_init_context
    rt_task.o(i.rt_sys_init) refers to rt_robin.o(i.rt_init_robin) for rt_init_robin
    rt_task.o(i.rt_sys_init) refers to rtx_conf_cm.o(.bss) for os_active_TCB
    rt_task.o(i.rt_sys_init) refers to rtx_conf_cm.o(.constdata) for os_maxtaskrun
    rt_task.o(i.rt_sys_init) refers to rtx_conf_cm.o(.constdata) for mp_tcb_size
    rt_task.o(i.rt_sys_init) refers to rtx_conf_cm.o(.bss) for mp_tcb
    rt_task.o(i.rt_sys_init) refers to rtx_conf_cm.o(.constdata) for os_stackinfo
    rt_task.o(i.rt_sys_init) refers to rtx_conf_cm.o(.constdata) for mp_stk_size
    rt_task.o(i.rt_sys_init) refers to rtx_conf_cm.o(.bss) for mp_stk
    rt_task.o(i.rt_sys_init) refers to rtx_conf_cm.o(.constdata) for mp_tmr_size
    rt_task.o(i.rt_sys_init) refers to rtx_conf_cm.o(.data) for m_tmr
    rt_task.o(i.rt_sys_init) refers to rt_task.o(.bss) for .bss
    rt_task.o(i.rt_sys_init) refers to rtx_conf_cm.o(i.os_idle_demon) for os_idle_demon
    rt_task.o(i.rt_sys_init) refers to rt_list.o(.bss) for os_rdy
    rt_task.o(i.rt_sys_init) refers to rt_task.o(.data) for .data
    rt_task.o(i.rt_sys_init) refers to rtx_conf_cm.o(.bss) for os_fifo
    rt_task.o(i.rt_sys_init) refers to rtx_conf_cm.o(.constdata) for os_fifo_size
    rt_task.o(i.rt_sys_start) refers to rt_system.o(i.os_tick_init) for os_tick_init
    rt_task.o(i.rt_sys_start) refers to rt_system.o(.data) for os_tick_irqn
    rt_task.o(i.rt_tsk_create) refers to rt_membox.o(i.rt_alloc_box) for rt_alloc_box
    rt_task.o(i.rt_tsk_create) refers to rt_task.o(i.rt_init_context) for rt_init_context
    rt_task.o(i.rt_tsk_create) refers to hal_cm.o(i.dbg_task_notify) for dbg_task_notify
    rt_task.o(i.rt_tsk_create) refers to rt_task.o(i.rt_dispatch) for rt_dispatch
    rt_task.o(i.rt_tsk_create) refers to rtx_conf_cm.o(.bss) for mp_tcb
    rt_task.o(i.rt_tsk_create) refers to rtx_conf_cm.o(.bss) for os_active_TCB
    rt_task.o(i.rt_tsk_create) refers to rtx_conf_cm.o(.constdata) for os_maxtaskrun
    rt_task.o(i.rt_tsk_create) refers to hal_cm.o(.data) for dbg_msg
    rt_task.o(i.rt_tsk_delete) refers to hal_cm4.o(.emb_text) for rt_get_PSP
    rt_task.o(i.rt_tsk_delete) refers to rt_system.o(i.rt_stk_check) for rt_stk_check
    rt_task.o(i.rt_tsk_delete) refers to rt_list.o(i.rt_get_first) for rt_get_first
    rt_task.o(i.rt_tsk_delete) refers to hal_cm.o(i.rt_ret_val) for rt_ret_val
    rt_task.o(i.rt_tsk_delete) refers to rt_list.o(i.rt_rmv_dly) for rt_rmv_dly
    rt_task.o(i.rt_tsk_delete) refers to rt_list.o(i.rt_put_prio) for rt_put_prio
    rt_task.o(i.rt_tsk_delete) refers to rt_membox.o(i.rt_free_box) for rt_free_box
    rt_task.o(i.rt_tsk_delete) refers to hal_cm.o(i.dbg_task_notify) for dbg_task_notify
    rt_task.o(i.rt_tsk_delete) refers to rt_list.o(i.rt_rmv_list) for rt_rmv_list
    rt_task.o(i.rt_tsk_delete) refers to rt_task.o(i.rt_dispatch) for rt_dispatch
    rt_task.o(i.rt_tsk_delete) refers to hal_cm.o(.data) for dbg_msg
    rt_task.o(i.rt_tsk_delete) refers to rtx_conf_cm.o(.bss) for os_active_TCB
    rt_task.o(i.rt_tsk_delete) refers to rt_task.o(.data) for .data
    rt_task.o(i.rt_tsk_delete) refers to rt_list.o(.bss) for os_rdy
    rt_task.o(i.rt_tsk_delete) refers to rtx_conf_cm.o(.bss) for mp_stk
    rt_task.o(i.rt_tsk_delete) refers to rtx_conf_cm.o(.bss) for mp_tcb
    rt_task.o(i.rt_tsk_delete) refers to rtx_conf_cm.o(.constdata) for os_maxtaskrun
    rt_task.o(i.rt_tsk_pass) refers to rt_list.o(i.rt_get_same_rdy_prio) for rt_get_same_rdy_prio
    rt_task.o(i.rt_tsk_pass) refers to rt_list.o(i.rt_put_prio) for rt_put_prio
    rt_task.o(i.rt_tsk_pass) refers to rt_task.o(i.rt_switch_req) for rt_switch_req
    rt_task.o(i.rt_tsk_pass) refers to rt_task.o(.data) for .data
    rt_task.o(i.rt_tsk_pass) refers to rt_list.o(.bss) for os_rdy
    rt_task.o(i.rt_tsk_prio) refers to rt_list.o(i.rt_put_prio) for rt_put_prio
    rt_task.o(i.rt_tsk_prio) refers to rt_list.o(i.rt_resort_prio) for rt_resort_prio
    rt_task.o(i.rt_tsk_prio) refers to rt_list.o(i.rt_get_first) for rt_get_first
    rt_task.o(i.rt_tsk_prio) refers to rt_task.o(i.rt_dispatch) for rt_dispatch
    rt_task.o(i.rt_tsk_prio) refers to rt_task.o(.data) for .data
    rt_task.o(i.rt_tsk_prio) refers to rtx_conf_cm.o(.constdata) for os_maxtaskrun
    rt_task.o(i.rt_tsk_prio) refers to rtx_conf_cm.o(.bss) for os_active_TCB
    rt_task.o(i.rt_tsk_prio) refers to rt_list.o(.bss) for os_rdy
    rt_task.o(i.rt_tsk_self) refers to rt_task.o(.data) for .data
    rt_system.o(i.os_tick_init) refers to rtx_conf_cm.o(.constdata) for os_trv
    rt_system.o(i.os_tick_val) refers to rtx_conf_cm.o(.constdata) for os_trv
    rt_system.o(i.rt_pop_req) refers to rt_list.o(i.rt_put_rdy_first) for rt_put_rdy_first
    rt_system.o(i.rt_pop_req) refers to rt_semaphore.o(i.rt_sem_psh) for rt_sem_psh
    rt_system.o(i.rt_pop_req) refers to rt_list.o(i.rt_get_first) for rt_get_first
    rt_system.o(i.rt_pop_req) refers to rt_task.o(i.rt_switch_req) for rt_switch_req
    rt_system.o(i.rt_pop_req) refers to rt_event.o(i.rt_evt_psh) for rt_evt_psh
    rt_system.o(i.rt_pop_req) refers to rt_mailbox.o(i.rt_mbx_psh) for rt_mbx_psh
    rt_system.o(i.rt_pop_req) refers to rt_task.o(.data) for os_tsk
    rt_system.o(i.rt_pop_req) refers to rtx_conf_cm.o(.bss) for os_fifo
    rt_system.o(i.rt_pop_req) refers to rt_list.o(.bss) for os_rdy
    rt_system.o(i.rt_psh_req) refers to rt_system.o(.data) for .data
    rt_system.o(i.rt_resume) refers to rt_list.o(i.rt_put_rdy_first) for rt_put_rdy_first
    rt_system.o(i.rt_resume) refers to rt_list.o(i.rt_dec_dly) for rt_dec_dly
    rt_system.o(i.rt_resume) refers to rt_cmsis.o(i.sysUserTimerUpdate) for sysUserTimerUpdate
    rt_system.o(i.rt_resume) refers to rt_list.o(i.rt_get_first) for rt_get_first
    rt_system.o(i.rt_resume) refers to rt_task.o(i.rt_switch_req) for rt_switch_req
    rt_system.o(i.rt_resume) refers to rt_system.o(i.rt_tsk_unlock) for rt_tsk_unlock
    rt_system.o(i.rt_resume) refers to rt_task.o(.data) for os_tsk
    rt_system.o(i.rt_resume) refers to rt_robin.o(.data) for os_robin
    rt_system.o(i.rt_resume) refers to rt_list.o(.bss) for os_dly
    rt_system.o(i.rt_resume) refers to rt_time.o(.data) for os_time
    rt_system.o(i.rt_stk_check) refers to rtx_conf_cm.o(i.os_error) for os_error
    rt_system.o(i.rt_stk_check) refers to rt_task.o(.data) for os_tsk
    rt_system.o(i.rt_suspend) refers to rt_system.o(i.rt_tsk_lock) for rt_tsk_lock
    rt_system.o(i.rt_suspend) refers to rt_cmsis.o(i.sysUserTimerWakeupTime) for sysUserTimerWakeupTime
    rt_system.o(i.rt_suspend) refers to rt_list.o(.bss) for os_dly
    rt_system.o(i.rt_systick) refers to rt_list.o(i.rt_put_rdy_first) for rt_put_rdy_first
    rt_system.o(i.rt_systick) refers to rt_robin.o(i.rt_chk_robin) for rt_chk_robin
    rt_system.o(i.rt_systick) refers to rt_list.o(i.rt_dec_dly) for rt_dec_dly
    rt_system.o(i.rt_systick) refers to rt_cmsis.o(i.sysTimerTick) for sysTimerTick
    rt_system.o(i.rt_systick) refers to rt_list.o(i.rt_get_first) for rt_get_first
    rt_system.o(i.rt_systick) refers to rt_task.o(i.rt_switch_req) for rt_switch_req
    rt_system.o(i.rt_systick) refers to rt_task.o(.data) for os_tsk
    rt_system.o(i.rt_systick) refers to rt_time.o(.data) for os_time
    rt_system.o(i.rt_systick) refers to rt_list.o(.bss) for os_rdy
    rt_system.o(i.rt_tsk_lock) refers to rt_system.o(.data) for .data
    rt_system.o(i.rt_tsk_unlock) refers to rt_system.o(.data) for .data
    rt_event.o(i.isr_evt_set) refers to rt_list.o(i.rt_psq_enq) for rt_psq_enq
    rt_event.o(i.isr_evt_set) refers to rt_system.o(i.rt_psh_req) for rt_psh_req
    rt_event.o(i.isr_evt_set) refers to rtx_conf_cm.o(.bss) for os_active_TCB
    rt_event.o(i.rt_evt_clr) refers to rtx_conf_cm.o(.bss) for os_active_TCB
    rt_event.o(i.rt_evt_get) refers to rt_task.o(.data) for os_tsk
    rt_event.o(i.rt_evt_psh) refers to rt_list.o(i.rt_rmv_dly) for rt_rmv_dly
    rt_event.o(i.rt_evt_psh) refers to hal_cm.o(i.rt_ret_val2) for rt_ret_val2
    rt_event.o(i.rt_evt_psh) refers to rt_list.o(i.rt_put_prio) for rt_put_prio
    rt_event.o(i.rt_evt_psh) refers to rt_list.o(.bss) for os_rdy
    rt_event.o(i.rt_evt_set) refers to rt_list.o(i.rt_rmv_dly) for rt_rmv_dly
    rt_event.o(i.rt_evt_set) refers to hal_cm.o(i.rt_ret_val2) for rt_ret_val2
    rt_event.o(i.rt_evt_set) refers to rt_task.o(i.rt_dispatch) for rt_dispatch
    rt_event.o(i.rt_evt_set) refers to rtx_conf_cm.o(.bss) for os_active_TCB
    rt_event.o(i.rt_evt_wait) refers to rt_task.o(i.rt_block) for rt_block
    rt_event.o(i.rt_evt_wait) refers to rt_task.o(.data) for os_tsk
    rt_list.o(i.rt_dec_dly) refers to rt_list.o(i.rt_put_prio) for rt_put_prio
    rt_list.o(i.rt_dec_dly) refers to rt_list.o(.bss) for .bss
    rt_list.o(i.rt_dec_dly) refers to rt_time.o(.data) for os_time
    rt_list.o(i.rt_get_same_rdy_prio) refers to rt_list.o(.bss) for .bss
    rt_list.o(i.rt_get_same_rdy_prio) refers to rt_task.o(.data) for os_tsk
    rt_list.o(i.rt_psq_enq) refers to rtx_conf_cm.o(i.os_error) for os_error
    rt_list.o(i.rt_psq_enq) refers to rtx_conf_cm.o(.bss) for os_fifo
    rt_list.o(i.rt_put_dly) refers to rt_list.o(.bss) for .bss
    rt_list.o(i.rt_put_rdy_first) refers to rt_list.o(.bss) for .bss
    rt_list.o(i.rt_resort_prio) refers to rt_list.o(i.rt_rmv_list) for rt_rmv_list
    rt_list.o(i.rt_resort_prio) refers to rt_list.o(i.rt_put_prio) for rt_put_prio
    rt_list.o(i.rt_resort_prio) refers to rt_list.o(.bss) for .bss
    rt_list.o(i.rt_rmv_list) refers to rt_list.o(.bss) for .bss
    rt_mailbox.o(i.isr_mbx_receive) refers to rt_list.o(i.rt_psq_enq) for rt_psq_enq
    rt_mailbox.o(i.isr_mbx_receive) refers to rt_system.o(i.rt_psh_req) for rt_psh_req
    rt_mailbox.o(i.isr_mbx_send) refers to rt_list.o(i.rt_psq_enq) for rt_psq_enq
    rt_mailbox.o(i.isr_mbx_send) refers to rt_system.o(i.rt_psh_req) for rt_psh_req
    rt_mailbox.o(i.rt_mbx_psh) refers to rt_membox.o(i.rt_alloc_box) for rt_alloc_box
    rt_mailbox.o(i.rt_mbx_psh) refers to rt_list.o(i.rt_get_first) for rt_get_first
    rt_mailbox.o(i.rt_mbx_psh) refers to hal_cm.o(i.rt_ret_val) for rt_ret_val
    rt_mailbox.o(i.rt_mbx_psh) refers to rt_list.o(i.rt_rmv_dly) for rt_rmv_dly
    rt_mailbox.o(i.rt_mbx_psh) refers to rt_list.o(i.rt_put_prio) for rt_put_prio
    rt_mailbox.o(i.rt_mbx_psh) refers to hal_cm.o(i.rt_ret_val2) for rt_ret_val2
    rt_mailbox.o(i.rt_mbx_psh) refers to rtx_conf_cm.o(i.os_error) for os_error
    rt_mailbox.o(i.rt_mbx_psh) refers to rt_list.o(.bss) for os_rdy
    rt_mailbox.o(i.rt_mbx_send) refers to rt_list.o(i.rt_put_prio) for rt_put_prio
    rt_mailbox.o(i.rt_mbx_send) refers to rt_list.o(i.rt_get_first) for rt_get_first
    rt_mailbox.o(i.rt_mbx_send) refers to hal_cm.o(i.rt_ret_val2) for rt_ret_val2
    rt_mailbox.o(i.rt_mbx_send) refers to rt_list.o(i.rt_rmv_dly) for rt_rmv_dly
    rt_mailbox.o(i.rt_mbx_send) refers to rt_task.o(i.rt_dispatch) for rt_dispatch
    rt_mailbox.o(i.rt_mbx_send) refers to rt_task.o(i.rt_block) for rt_block
    rt_mailbox.o(i.rt_mbx_send) refers to rt_task.o(.data) for os_tsk
    rt_mailbox.o(i.rt_mbx_wait) refers to rt_list.o(i.rt_get_first) for rt_get_first
    rt_mailbox.o(i.rt_mbx_wait) refers to hal_cm.o(i.rt_ret_val) for rt_ret_val
    rt_mailbox.o(i.rt_mbx_wait) refers to rt_list.o(i.rt_rmv_dly) for rt_rmv_dly
    rt_mailbox.o(i.rt_mbx_wait) refers to rt_task.o(i.rt_dispatch) for rt_dispatch
    rt_mailbox.o(i.rt_mbx_wait) refers to rt_list.o(i.rt_put_prio) for rt_put_prio
    rt_mailbox.o(i.rt_mbx_wait) refers to rt_task.o(i.rt_block) for rt_block
    rt_mailbox.o(i.rt_mbx_wait) refers to rt_task.o(.data) for os_tsk
    rt_semaphore.o(i.isr_sem_send) refers to rt_list.o(i.rt_psq_enq) for rt_psq_enq
    rt_semaphore.o(i.isr_sem_send) refers to rt_system.o(i.rt_psh_req) for rt_psh_req
    rt_semaphore.o(i.rt_sem_delete) refers to rt_list.o(i.rt_get_first) for rt_get_first
    rt_semaphore.o(i.rt_sem_delete) refers to hal_cm.o(i.rt_ret_val) for rt_ret_val
    rt_semaphore.o(i.rt_sem_delete) refers to rt_list.o(i.rt_rmv_dly) for rt_rmv_dly
    rt_semaphore.o(i.rt_sem_delete) refers to rt_list.o(i.rt_put_prio) for rt_put_prio
    rt_semaphore.o(i.rt_sem_delete) refers to rt_task.o(i.rt_dispatch) for rt_dispatch
    rt_semaphore.o(i.rt_sem_delete) refers to rt_list.o(.bss) for os_rdy
    rt_semaphore.o(i.rt_sem_delete) refers to rt_task.o(.data) for os_tsk
    rt_semaphore.o(i.rt_sem_psh) refers to rt_list.o(i.rt_get_first) for rt_get_first
    rt_semaphore.o(i.rt_sem_psh) refers to rt_list.o(i.rt_rmv_dly) for rt_rmv_dly
    rt_semaphore.o(i.rt_sem_psh) refers to hal_cm.o(i.rt_ret_val) for rt_ret_val
    rt_semaphore.o(i.rt_sem_psh) refers to rt_list.o(i.rt_put_prio) for rt_put_prio
    rt_semaphore.o(i.rt_sem_psh) refers to rt_list.o(.bss) for os_rdy
    rt_semaphore.o(i.rt_sem_send) refers to rt_list.o(i.rt_get_first) for rt_get_first
    rt_semaphore.o(i.rt_sem_send) refers to hal_cm.o(i.rt_ret_val) for rt_ret_val
    rt_semaphore.o(i.rt_sem_send) refers to rt_list.o(i.rt_rmv_dly) for rt_rmv_dly
    rt_semaphore.o(i.rt_sem_send) refers to rt_task.o(i.rt_dispatch) for rt_dispatch
    rt_semaphore.o(i.rt_sem_wait) refers to rt_list.o(i.rt_put_prio) for rt_put_prio
    rt_semaphore.o(i.rt_sem_wait) refers to rt_task.o(i.rt_block) for rt_block
    rt_semaphore.o(i.rt_sem_wait) refers to rt_task.o(.data) for os_tsk
    rt_time.o(i.rt_dly_wait) refers to rt_task.o(i.rt_block) for rt_block
    rt_time.o(i.rt_itv_set) refers to rt_task.o(.data) for os_tsk
    rt_time.o(i.rt_itv_set) refers to rt_time.o(.data) for .data
    rt_time.o(i.rt_itv_wait) refers to rt_task.o(i.rt_block) for rt_block
    rt_time.o(i.rt_itv_wait) refers to rt_task.o(.data) for os_tsk
    rt_time.o(i.rt_itv_wait) refers to rt_time.o(.data) for .data
    rt_time.o(i.rt_time_get) refers to rt_time.o(.data) for .data
    rt_mutex.o(i.rt_mut_delete) refers to rt_list.o(i.rt_resort_prio) for rt_resort_prio
    rt_mutex.o(i.rt_mut_delete) refers to rt_list.o(i.rt_get_first) for rt_get_first
    rt_mutex.o(i.rt_mut_delete) refers to hal_cm.o(i.rt_ret_val) for rt_ret_val
    rt_mutex.o(i.rt_mut_delete) refers to rt_list.o(i.rt_rmv_dly) for rt_rmv_dly
    rt_mutex.o(i.rt_mut_delete) refers to rt_list.o(i.rt_put_prio) for rt_put_prio
    rt_mutex.o(i.rt_mut_delete) refers to rt_task.o(i.rt_dispatch) for rt_dispatch
    rt_mutex.o(i.rt_mut_delete) refers to rt_task.o(.data) for os_tsk
    rt_mutex.o(i.rt_mut_delete) refers to rt_list.o(.bss) for os_rdy
    rt_mutex.o(i.rt_mut_release) refers to rt_list.o(i.rt_get_first) for rt_get_first
    rt_mutex.o(i.rt_mut_release) refers to hal_cm.o(i.rt_ret_val) for rt_ret_val
    rt_mutex.o(i.rt_mut_release) refers to rt_list.o(i.rt_rmv_dly) for rt_rmv_dly
    rt_mutex.o(i.rt_mut_release) refers to rt_list.o(i.rt_put_prio) for rt_put_prio
    rt_mutex.o(i.rt_mut_release) refers to rt_task.o(i.rt_dispatch) for rt_dispatch
    rt_mutex.o(i.rt_mut_release) refers to rt_task.o(.data) for os_tsk
    rt_mutex.o(i.rt_mut_release) refers to rt_list.o(.bss) for os_rdy
    rt_mutex.o(i.rt_mut_wait) refers to rt_list.o(i.rt_resort_prio) for rt_resort_prio
    rt_mutex.o(i.rt_mut_wait) refers to rt_list.o(i.rt_put_prio) for rt_put_prio
    rt_mutex.o(i.rt_mut_wait) refers to rt_task.o(i.rt_block) for rt_block
    rt_mutex.o(i.rt_mut_wait) refers to rt_task.o(.data) for os_tsk
    rt_membox.o(i._calloc_box) refers to hal_cm4.o(.emb_text) for _alloc_box
    hal_cm.o(i.dbg_init) refers to hal_cm.o(.data) for .data
    hal_cm.o(i.rt_init_stack) refers to rtx_conf_cm.o(.constdata) for os_stackinfo
    hal_cm.o(i.rt_ret_val) refers to hal_cm.o(i.rt_ret_regs) for rt_ret_regs
    hal_cm.o(i.rt_ret_val2) refers to hal_cm.o(i.rt_ret_regs) for rt_ret_regs
    rt_robin.o(i.rt_chk_robin) refers to rt_list.o(i.rt_get_first) for rt_get_first
    rt_robin.o(i.rt_chk_robin) refers to rt_list.o(i.rt_put_prio) for rt_put_prio
    rt_robin.o(i.rt_chk_robin) refers to rt_robin.o(.data) for .data
    rt_robin.o(i.rt_chk_robin) refers to rt_list.o(.bss) for os_rdy
    rt_robin.o(i.rt_chk_robin) refers to rt_time.o(.data) for os_time
    rt_robin.o(i.rt_init_robin) refers to rt_robin.o(.data) for .data
    rt_robin.o(i.rt_init_robin) refers to rtx_conf_cm.o(.constdata) for os_rrobin
    hal_cm4.o(.emb_text) refers to rtx_conf_cm.o(.constdata) for os_flags
    hal_cm4.o(.emb_text) refers to rt_membox.o(i.rt_alloc_box) for rt_alloc_box
    hal_cm4.o(.emb_text) refers to rt_membox.o(i.rt_free_box) for rt_free_box
    hal_cm4.o(.emb_text) refers to rt_system.o(i.rt_stk_check) for rt_stk_check
    hal_cm4.o(.emb_text) refers to rt_task.o(.data) for os_tsk
    hal_cm4.o(.emb_text) refers to svc_table.o(SVC_TABLE) for SVC_Count
    hal_cm4.o(.emb_text) refers to rt_system.o(i.rt_pop_req) for rt_pop_req
    hal_cm4.o(.emb_text) refers to rt_system.o(i.rt_systick) for rt_systick
    hal_cm4.o(.emb_text) refers to rt_system.o(i.os_tick_irqack) for os_tick_irqack
    atof.o(i.__hardfp_atof) refers (Special) to iusefp.o(.text) for __I$use$fp
    atof.o(i.__hardfp_atof) refers to errno.o(i.__read_errno) for __read_errno
    atof.o(i.__hardfp_atof) refers to strtod.o(.text) for __strtod_int
    atof.o(i.__hardfp_atof) refers to errno.o(i.__set_errno) for __set_errno
    atof.o(i.__softfp_atof) refers (Special) to iusefp.o(.text) for __I$use$fp
    atof.o(i.__softfp_atof) refers to errno.o(i.__read_errno) for __read_errno
    atof.o(i.__softfp_atof) refers to strtod.o(.text) for __strtod_int
    atof.o(i.__softfp_atof) refers to errno.o(i.__set_errno) for __set_errno
    atof.o(i.atof) refers (Special) to iusefp.o(.text) for __I$use$fp
    atof.o(i.atof) refers to errno.o(i.__read_errno) for __read_errno
    atof.o(i.atof) refers to strtod.o(.text) for __strtod_int
    atof.o(i.atof) refers to errno.o(i.__set_errno) for __set_errno
    entry.o(.ARM.Collect$$$$00000000) refers (Special) to entry10a.o(.ARM.Collect$$$$0000000F) for __rt_final_cpp
    entry.o(.ARM.Collect$$$$00000000) refers (Special) to entry11a.o(.ARM.Collect$$$$00000011) for __rt_final_exit
    entry.o(.ARM.Collect$$$$00000000) refers (Special) to entry12b.o(.ARM.Collect$$$$0000000E) for __rt_lib_shutdown_fini
    entry.o(.ARM.Collect$$$$00000000) refers (Special) to entry7b.o(.ARM.Collect$$$$00000008) for _main_clock
    entry.o(.ARM.Collect$$$$00000000) refers (Special) to entry8b.o(.ARM.Collect$$$$0000000A) for _main_cpp_init
    entry.o(.ARM.Collect$$$$00000000) refers (Special) to rtx_conf_cm.o(.ARM.Collect$$$$000000FF) for _main_init
    entry.o(.ARM.Collect$$$$00000000) refers (Special) to entry5.o(.ARM.Collect$$$$00000004) for _main_scatterload
    entry.o(.ARM.Collect$$$$00000000) refers (Special) to entry2.o(.ARM.Collect$$$$00000001) for _main_stk
    uldiv.o(.text) refers to llushr.o(.text) for __aeabi_llsr
    uldiv.o(.text) refers to llshl.o(.text) for __aeabi_llsl
    printfb.o(i.__0fprintf$bare) refers to printfb.o(i._printf_core) for _printf_core
    printfb.o(i.__0fprintf$bare) refers to fputc.o(i.fputc) for fputc
    printfb.o(i.__0printf$bare) refers to printfb.o(i._printf_core) for _printf_core
    printfb.o(i.__0printf$bare) refers to fputc.o(i.fputc) for fputc
    printfb.o(i.__0printf$bare) refers to stdout.o(.data) for __stdout
    printfb.o(i.__0snprintf$bare) refers to printfb.o(i._printf_core) for _printf_core
    printfb.o(i.__0snprintf$bare) refers to printfb.o(i._snputc) for _snputc
    printfb.o(i.__0sprintf$bare) refers to printfb.o(i._printf_core) for _printf_core
    printfb.o(i.__0sprintf$bare) refers to printfb.o(i._sputc) for _sputc
    printfb.o(i.__0vfprintf$bare) refers to printfb.o(i._printf_core) for _printf_core
    printfb.o(i.__0vfprintf$bare) refers to fputc.o(i.fputc) for fputc
    printfb.o(i.__0vprintf$bare) refers to printfb.o(i._printf_core) for _printf_core
    printfb.o(i.__0vprintf$bare) refers to fputc.o(i.fputc) for fputc
    printfb.o(i.__0vprintf$bare) refers to stdout.o(.data) for __stdout
    printfb.o(i.__0vsnprintf$bare) refers to printfb.o(i._printf_core) for _printf_core
    printfb.o(i.__0vsnprintf$bare) refers to printfb.o(i._snputc) for _snputc
    printfb.o(i.__0vsprintf$bare) refers to printfb.o(i._printf_core) for _printf_core
    printfb.o(i.__0vsprintf$bare) refers to printfb.o(i._sputc) for _sputc
    printf0.o(i.__0fprintf$0) refers to printf0.o(i._printf_core) for _printf_core
    printf0.o(i.__0fprintf$0) refers to fputc.o(i.fputc) for fputc
    printf0.o(i.__0printf$0) refers to printf0.o(i._printf_core) for _printf_core
    printf0.o(i.__0printf$0) refers to fputc.o(i.fputc) for fputc
    printf0.o(i.__0printf$0) refers to stdout.o(.data) for __stdout
    printf0.o(i.__0snprintf$0) refers to printf0.o(i._printf_core) for _printf_core
    printf0.o(i.__0snprintf$0) refers to printf0.o(i._snputc) for _snputc
    printf0.o(i.__0sprintf$0) refers to printf0.o(i._printf_core) for _printf_core
    printf0.o(i.__0sprintf$0) refers to printf0.o(i._sputc) for _sputc
    printf0.o(i.__0vfprintf$0) refers to printf0.o(i._printf_core) for _printf_core
    printf0.o(i.__0vfprintf$0) refers to fputc.o(i.fputc) for fputc
    printf0.o(i.__0vprintf$0) refers to printf0.o(i._printf_core) for _printf_core
    printf0.o(i.__0vprintf$0) refers to fputc.o(i.fputc) for fputc
    printf0.o(i.__0vprintf$0) refers to stdout.o(.data) for __stdout
    printf0.o(i.__0vsnprintf$0) refers to printf0.o(i._printf_core) for _printf_core
    printf0.o(i.__0vsnprintf$0) refers to printf0.o(i._snputc) for _snputc
    printf0.o(i.__0vsprintf$0) refers to printf0.o(i._printf_core) for _printf_core
    printf0.o(i.__0vsprintf$0) refers to printf0.o(i._sputc) for _sputc
    printf1.o(i.__0fprintf$1) refers to printf1.o(i._printf_core) for _printf_core
    printf1.o(i.__0fprintf$1) refers to fputc.o(i.fputc) for fputc
    printf1.o(i.__0printf$1) refers to printf1.o(i._printf_core) for _printf_core
    printf1.o(i.__0printf$1) refers to fputc.o(i.fputc) for fputc
    printf1.o(i.__0printf$1) refers to stdout.o(.data) for __stdout
    printf1.o(i.__0snprintf$1) refers to printf1.o(i._printf_core) for _printf_core
    printf1.o(i.__0snprintf$1) refers to printf1.o(i._snputc) for _snputc
    printf1.o(i.__0sprintf$1) refers to printf1.o(i._printf_core) for _printf_core
    printf1.o(i.__0sprintf$1) refers to printf1.o(i._sputc) for _sputc
    printf1.o(i.__0vfprintf$1) refers to printf1.o(i._printf_core) for _printf_core
    printf1.o(i.__0vfprintf$1) refers to fputc.o(i.fputc) for fputc
    printf1.o(i.__0vprintf$1) refers to printf1.o(i._printf_core) for _printf_core
    printf1.o(i.__0vprintf$1) refers to fputc.o(i.fputc) for fputc
    printf1.o(i.__0vprintf$1) refers to stdout.o(.data) for __stdout
    printf1.o(i.__0vsnprintf$1) refers to printf1.o(i._printf_core) for _printf_core
    printf1.o(i.__0vsnprintf$1) refers to printf1.o(i._snputc) for _snputc
    printf1.o(i.__0vsprintf$1) refers to printf1.o(i._printf_core) for _printf_core
    printf1.o(i.__0vsprintf$1) refers to printf1.o(i._sputc) for _sputc
    printf1.o(i._printf_core) refers to uidiv.o(.text) for __aeabi_uidivmod
    printf2.o(i.__0fprintf$2) refers to printf2.o(i._printf_core) for _printf_core
    printf2.o(i.__0fprintf$2) refers to fputc.o(i.fputc) for fputc
    printf2.o(i.__0printf$2) refers to printf2.o(i._printf_core) for _printf_core
    printf2.o(i.__0printf$2) refers to fputc.o(i.fputc) for fputc
    printf2.o(i.__0printf$2) refers to stdout.o(.data) for __stdout
    printf2.o(i.__0snprintf$2) refers to printf2.o(i._printf_core) for _printf_core
    printf2.o(i.__0snprintf$2) refers to printf2.o(i._snputc) for _snputc
    printf2.o(i.__0sprintf$2) refers to printf2.o(i._printf_core) for _printf_core
    printf2.o(i.__0sprintf$2) refers to printf2.o(i._sputc) for _sputc
    printf2.o(i.__0vfprintf$2) refers to printf2.o(i._printf_core) for _printf_core
    printf2.o(i.__0vfprintf$2) refers to fputc.o(i.fputc) for fputc
    printf2.o(i.__0vprintf$2) refers to printf2.o(i._printf_core) for _printf_core
    printf2.o(i.__0vprintf$2) refers to fputc.o(i.fputc) for fputc
    printf2.o(i.__0vprintf$2) refers to stdout.o(.data) for __stdout
    printf2.o(i.__0vsnprintf$2) refers to printf2.o(i._printf_core) for _printf_core
    printf2.o(i.__0vsnprintf$2) refers to printf2.o(i._snputc) for _snputc
    printf2.o(i.__0vsprintf$2) refers to printf2.o(i._printf_core) for _printf_core
    printf2.o(i.__0vsprintf$2) refers to printf2.o(i._sputc) for _sputc
    printf3.o(i.__0fprintf$3) refers to printf3.o(i._printf_core) for _printf_core
    printf3.o(i.__0fprintf$3) refers to fputc.o(i.fputc) for fputc
    printf3.o(i.__0printf$3) refers to printf3.o(i._printf_core) for _printf_core
    printf3.o(i.__0printf$3) refers to fputc.o(i.fputc) for fputc
    printf3.o(i.__0printf$3) refers to stdout.o(.data) for __stdout
    printf3.o(i.__0snprintf$3) refers to printf3.o(i._printf_core) for _printf_core
    printf3.o(i.__0snprintf$3) refers to printf3.o(i._snputc) for _snputc
    printf3.o(i.__0sprintf$3) refers to printf3.o(i._printf_core) for _printf_core
    printf3.o(i.__0sprintf$3) refers to printf3.o(i._sputc) for _sputc
    printf3.o(i.__0vfprintf$3) refers to printf3.o(i._printf_core) for _printf_core
    printf3.o(i.__0vfprintf$3) refers to fputc.o(i.fputc) for fputc
    printf3.o(i.__0vprintf$3) refers to printf3.o(i._printf_core) for _printf_core
    printf3.o(i.__0vprintf$3) refers to fputc.o(i.fputc) for fputc
    printf3.o(i.__0vprintf$3) refers to stdout.o(.data) for __stdout
    printf3.o(i.__0vsnprintf$3) refers to printf3.o(i._printf_core) for _printf_core
    printf3.o(i.__0vsnprintf$3) refers to printf3.o(i._snputc) for _snputc
    printf3.o(i.__0vsprintf$3) refers to printf3.o(i._printf_core) for _printf_core
    printf3.o(i.__0vsprintf$3) refers to printf3.o(i._sputc) for _sputc
    printf3.o(i._printf_core) refers to uidiv.o(.text) for __aeabi_uidivmod
    printf4.o(i.__0fprintf$4) refers to printf4.o(i._printf_core) for _printf_core
    printf4.o(i.__0fprintf$4) refers to fputc.o(i.fputc) for fputc
    printf4.o(i.__0printf$4) refers to printf4.o(i._printf_core) for _printf_core
    printf4.o(i.__0printf$4) refers to fputc.o(i.fputc) for fputc
    printf4.o(i.__0printf$4) refers to stdout.o(.data) for __stdout
    printf4.o(i.__0snprintf$4) refers to printf4.o(i._printf_core) for _printf_core
    printf4.o(i.__0snprintf$4) refers to printf4.o(i._snputc) for _snputc
    printf4.o(i.__0sprintf$4) refers to printf4.o(i._printf_core) for _printf_core
    printf4.o(i.__0sprintf$4) refers to printf4.o(i._sputc) for _sputc
    printf4.o(i.__0vfprintf$4) refers to printf4.o(i._printf_core) for _printf_core
    printf4.o(i.__0vfprintf$4) refers to fputc.o(i.fputc) for fputc
    printf4.o(i.__0vprintf$4) refers to printf4.o(i._printf_core) for _printf_core
    printf4.o(i.__0vprintf$4) refers to fputc.o(i.fputc) for fputc
    printf4.o(i.__0vprintf$4) refers to stdout.o(.data) for __stdout
    printf4.o(i.__0vsnprintf$4) refers to printf4.o(i._printf_core) for _printf_core
    printf4.o(i.__0vsnprintf$4) refers to printf4.o(i._snputc) for _snputc
    printf4.o(i.__0vsprintf$4) refers to printf4.o(i._printf_core) for _printf_core
    printf4.o(i.__0vsprintf$4) refers to printf4.o(i._sputc) for _sputc
    printf4.o(i._printf_core) refers to uldiv.o(.text) for __aeabi_uldivmod
    printf5.o(i.__0fprintf$5) refers to printf5.o(i._printf_core) for _printf_core
    printf5.o(i.__0fprintf$5) refers to fputc.o(i.fputc) for fputc
    printf5.o(i.__0printf$5) refers to printf5.o(i._printf_core) for _printf_core
    printf5.o(i.__0printf$5) refers to fputc.o(i.fputc) for fputc
    printf5.o(i.__0printf$5) refers to stdout.o(.data) for __stdout
    printf5.o(i.__0snprintf$5) refers to printf5.o(i._printf_core) for _printf_core
    printf5.o(i.__0snprintf$5) refers to printf5.o(i._snputc) for _snputc
    printf5.o(i.__0sprintf$5) refers to printf5.o(i._printf_core) for _printf_core
    printf5.o(i.__0sprintf$5) refers to printf5.o(i._sputc) for _sputc
    printf5.o(i.__0vfprintf$5) refers to printf5.o(i._printf_core) for _printf_core
    printf5.o(i.__0vfprintf$5) refers to fputc.o(i.fputc) for fputc
    printf5.o(i.__0vprintf$5) refers to printf5.o(i._printf_core) for _printf_core
    printf5.o(i.__0vprintf$5) refers to fputc.o(i.fputc) for fputc
    printf5.o(i.__0vprintf$5) refers to stdout.o(.data) for __stdout
    printf5.o(i.__0vsnprintf$5) refers to printf5.o(i._printf_core) for _printf_core
    printf5.o(i.__0vsnprintf$5) refers to printf5.o(i._snputc) for _snputc
    printf5.o(i.__0vsprintf$5) refers to printf5.o(i._printf_core) for _printf_core
    printf5.o(i.__0vsprintf$5) refers to printf5.o(i._sputc) for _sputc
    printf5.o(i._printf_core) refers to uldiv.o(.text) for __aeabi_uldivmod
    printf6.o(i.__0fprintf$6) refers to printf6.o(i._printf_core) for _printf_core
    printf6.o(i.__0fprintf$6) refers to fputc.o(i.fputc) for fputc
    printf6.o(i.__0printf$6) refers to printf6.o(i._printf_core) for _printf_core
    printf6.o(i.__0printf$6) refers to fputc.o(i.fputc) for fputc
    printf6.o(i.__0printf$6) refers to stdout.o(.data) for __stdout
    printf6.o(i.__0snprintf$6) refers to printf6.o(i._printf_core) for _printf_core
    printf6.o(i.__0snprintf$6) refers to printf6.o(i._snputc) for _snputc
    printf6.o(i.__0sprintf$6) refers to printf6.o(i._printf_core) for _printf_core
    printf6.o(i.__0sprintf$6) refers to printf6.o(i._sputc) for _sputc
    printf6.o(i.__0vfprintf$6) refers to printf6.o(i._printf_core) for _printf_core
    printf6.o(i.__0vfprintf$6) refers to fputc.o(i.fputc) for fputc
    printf6.o(i.__0vprintf$6) refers to printf6.o(i._printf_core) for _printf_core
    printf6.o(i.__0vprintf$6) refers to fputc.o(i.fputc) for fputc
    printf6.o(i.__0vprintf$6) refers to stdout.o(.data) for __stdout
    printf6.o(i.__0vsnprintf$6) refers to printf6.o(i._printf_core) for _printf_core
    printf6.o(i.__0vsnprintf$6) refers to printf6.o(i._snputc) for _snputc
    printf6.o(i.__0vsprintf$6) refers to printf6.o(i._printf_core) for _printf_core
    printf6.o(i.__0vsprintf$6) refers to printf6.o(i._sputc) for _sputc
    printf6.o(i._printf_core) refers to printf6.o(i._printf_pre_padding) for _printf_pre_padding
    printf6.o(i._printf_core) refers to uidiv.o(.text) for __aeabi_uidivmod
    printf6.o(i._printf_core) refers to printf6.o(i._printf_post_padding) for _printf_post_padding
    printf7.o(i.__0fprintf$7) refers to printf7.o(i._printf_core) for _printf_core
    printf7.o(i.__0fprintf$7) refers to fputc.o(i.fputc) for fputc
    printf7.o(i.__0printf$7) refers to printf7.o(i._printf_core) for _printf_core
    printf7.o(i.__0printf$7) refers to fputc.o(i.fputc) for fputc
    printf7.o(i.__0printf$7) refers to stdout.o(.data) for __stdout
    printf7.o(i.__0snprintf$7) refers to printf7.o(i._printf_core) for _printf_core
    printf7.o(i.__0snprintf$7) refers to printf7.o(i._snputc) for _snputc
    printf7.o(i.__0sprintf$7) refers to printf7.o(i._printf_core) for _printf_core
    printf7.o(i.__0sprintf$7) refers to printf7.o(i._sputc) for _sputc
    printf7.o(i.__0vfprintf$7) refers to printf7.o(i._printf_core) for _printf_core
    printf7.o(i.__0vfprintf$7) refers to fputc.o(i.fputc) for fputc
    printf7.o(i.__0vprintf$7) refers to printf7.o(i._printf_core) for _printf_core
    printf7.o(i.__0vprintf$7) refers to fputc.o(i.fputc) for fputc
    printf7.o(i.__0vprintf$7) refers to stdout.o(.data) for __stdout
    printf7.o(i.__0vsnprintf$7) refers to printf7.o(i._printf_core) for _printf_core
    printf7.o(i.__0vsnprintf$7) refers to printf7.o(i._snputc) for _snputc
    printf7.o(i.__0vsprintf$7) refers to printf7.o(i._printf_core) for _printf_core
    printf7.o(i.__0vsprintf$7) refers to printf7.o(i._sputc) for _sputc
    printf7.o(i._printf_core) refers to printf7.o(i._printf_pre_padding) for _printf_pre_padding
    printf7.o(i._printf_core) refers to uldiv.o(.text) for __aeabi_uldivmod
    printf7.o(i._printf_core) refers to printf7.o(i._printf_post_padding) for _printf_post_padding
    printf8.o(i.__0fprintf$8) refers to printf8.o(i._printf_core) for _printf_core
    printf8.o(i.__0fprintf$8) refers to fputc.o(i.fputc) for fputc
    printf8.o(i.__0printf$8) refers to printf8.o(i._printf_core) for _printf_core
    printf8.o(i.__0printf$8) refers to fputc.o(i.fputc) for fputc
    printf8.o(i.__0printf$8) refers to stdout.o(.data) for __stdout
    printf8.o(i.__0snprintf$8) refers to printf8.o(i._printf_core) for _printf_core
    printf8.o(i.__0snprintf$8) refers to printf8.o(i._snputc) for _snputc
    printf8.o(i.__0sprintf$8) refers to printf8.o(i._printf_core) for _printf_core
    printf8.o(i.__0sprintf$8) refers to printf8.o(i._sputc) for _sputc
    printf8.o(i.__0vfprintf$8) refers to printf8.o(i._printf_core) for _printf_core
    printf8.o(i.__0vfprintf$8) refers to fputc.o(i.fputc) for fputc
    printf8.o(i.__0vprintf$8) refers to printf8.o(i._printf_core) for _printf_core
    printf8.o(i.__0vprintf$8) refers to fputc.o(i.fputc) for fputc
    printf8.o(i.__0vprintf$8) refers to stdout.o(.data) for __stdout
    printf8.o(i.__0vsnprintf$8) refers to printf8.o(i._printf_core) for _printf_core
    printf8.o(i.__0vsnprintf$8) refers to printf8.o(i._snputc) for _snputc
    printf8.o(i.__0vsprintf$8) refers to printf8.o(i._printf_core) for _printf_core
    printf8.o(i.__0vsprintf$8) refers to printf8.o(i._sputc) for _sputc
    printf8.o(i._printf_core) refers to printf8.o(i._printf_pre_padding) for _printf_pre_padding
    printf8.o(i._printf_core) refers to uldiv.o(.text) for __aeabi_uldivmod
    printf8.o(i._printf_core) refers to printf8.o(i._printf_post_padding) for _printf_post_padding
    printfa.o(i.__0fprintf) refers (Special) to iusefp.o(.text) for __I$use$fp
    printfa.o(i.__0fprintf) refers to printfa.o(i._printf_core) for _printf_core
    printfa.o(i.__0fprintf) refers to fputc.o(i.fputc) for fputc
    printfa.o(i.__0printf) refers (Special) to iusefp.o(.text) for __I$use$fp
    printfa.o(i.__0printf) refers to printfa.o(i._printf_core) for _printf_core
    printfa.o(i.__0printf) refers to fputc.o(i.fputc) for fputc
    printfa.o(i.__0printf) refers to stdout.o(.data) for __stdout
    printfa.o(i.__0snprintf) refers (Special) to iusefp.o(.text) for __I$use$fp
    printfa.o(i.__0snprintf) refers to printfa.o(i._printf_core) for _printf_core
    printfa.o(i.__0snprintf) refers to printfa.o(i._snputc) for _snputc
    printfa.o(i.__0sprintf) refers (Special) to iusefp.o(.text) for __I$use$fp
    printfa.o(i.__0sprintf) refers to printfa.o(i._printf_core) for _printf_core
    printfa.o(i.__0sprintf) refers to printfa.o(i._sputc) for _sputc
    printfa.o(i.__0vfprintf) refers (Special) to iusefp.o(.text) for __I$use$fp
    printfa.o(i.__0vfprintf) refers to printfa.o(i._printf_core) for _printf_core
    printfa.o(i.__0vfprintf) refers to fputc.o(i.fputc) for fputc
    printfa.o(i.__0vprintf) refers (Special) to iusefp.o(.text) for __I$use$fp
    printfa.o(i.__0vprintf) refers to printfa.o(i._printf_core) for _printf_core
    printfa.o(i.__0vprintf) refers to fputc.o(i.fputc) for fputc
    printfa.o(i.__0vprintf) refers to stdout.o(.data) for __stdout
    printfa.o(i.__0vsnprintf) refers (Special) to iusefp.o(.text) for __I$use$fp
    printfa.o(i.__0vsnprintf) refers to printfa.o(i._printf_core) for _printf_core
    printfa.o(i.__0vsnprintf) refers to printfa.o(i._snputc) for _snputc
    printfa.o(i.__0vsprintf) refers (Special) to iusefp.o(.text) for __I$use$fp
    printfa.o(i.__0vsprintf) refers to printfa.o(i._printf_core) for _printf_core
    printfa.o(i.__0vsprintf) refers to printfa.o(i._sputc) for _sputc
    printfa.o(i._fp_digits) refers (Special) to iusefp.o(.text) for __I$use$fp
    printfa.o(i._fp_digits) refers to dmul.o(.text) for __aeabi_dmul
    printfa.o(i._fp_digits) refers to ddiv.o(.text) for __aeabi_ddiv
    printfa.o(i._fp_digits) refers to cdrcmple.o(.text) for __aeabi_cdrcmple
    printfa.o(i._fp_digits) refers to dadd.o(.text) for __aeabi_dadd
    printfa.o(i._fp_digits) refers to dfixul.o(.text) for __aeabi_d2ulz
    printfa.o(i._fp_digits) refers to uldiv.o(.text) for __aeabi_uldivmod
    printfa.o(i._printf_core) refers (Special) to iusefp.o(.text) for __I$use$fp
    printfa.o(i._printf_core) refers to printfa.o(i._printf_pre_padding) for _printf_pre_padding
    printfa.o(i._printf_core) refers to uldiv.o(.text) for __aeabi_uldivmod
    printfa.o(i._printf_core) refers to printfa.o(i._printf_post_padding) for _printf_post_padding
    printfa.o(i._printf_core) refers to printfa.o(i._fp_digits) for _fp_digits
    printfa.o(i._printf_core) refers to uidiv.o(.text) for __aeabi_uidivmod
    printfa.o(i._printf_post_padding) refers (Special) to iusefp.o(.text) for __I$use$fp
    printfa.o(i._printf_pre_padding) refers (Special) to iusefp.o(.text) for __I$use$fp
    printfa.o(i._snputc) refers (Special) to iusefp.o(.text) for __I$use$fp
    printfa.o(i._sputc) refers (Special) to iusefp.o(.text) for __I$use$fp
    __0sscanf.o(.text) refers to scanf_char.o(.text) for __vfscanf_char
    __0sscanf.o(.text) refers to _sgetc.o(.text) for _sgetc
    _scanf_int.o(.text) refers to _chval.o(.text) for _chval
    dadd.o(.text) refers (Special) to iusefp.o(.text) for __I$use$fp
    dadd.o(.text) refers to llshl.o(.text) for __aeabi_llsl
    dadd.o(.text) refers to llsshr.o(.text) for __aeabi_lasr
    dadd.o(.text) refers to depilogue.o(.text) for _double_epilogue
    dmul.o(.text) refers (Special) to iusefp.o(.text) for __I$use$fp
    dmul.o(.text) refers to depilogue.o(.text) for _double_epilogue
    ddiv.o(.text) refers (Special) to iusefp.o(.text) for __I$use$fp
    ddiv.o(.text) refers to depilogue.o(.text) for _double_round
    dflti.o(.text) refers (Special) to iusefp.o(.text) for __I$use$fp
    dflti.o(.text) refers to depilogue.o(.text) for _double_epilogue
    dfltui.o(.text) refers (Special) to iusefp.o(.text) for __I$use$fp
    dfltui.o(.text) refers to depilogue.o(.text) for _double_epilogue
    dfixui.o(.text) refers (Special) to iusefp.o(.text) for __I$use$fp
    dfixui.o(.text) refers to llushr.o(.text) for __aeabi_llsr
    cdcmple.o(.text) refers (Special) to iusefp.o(.text) for __I$use$fp
    d2f.o(.text) refers (Special) to iusefp.o(.text) for __I$use$fp
    d2f.o(.text) refers to fepilogue.o(.text) for _float_round
    entry2.o(.ARM.Collect$$$$00000001) refers to entry2.o(.ARM.Collect$$$$00002712) for __lit__00000000
    entry2.o(.ARM.Collect$$$$00002712) refers to startup_stm32f302xc.o(STACK) for __initial_sp
    entry2.o(__vectab_stack_and_reset_area) refers to startup_stm32f302xc.o(STACK) for __initial_sp
    entry2.o(__vectab_stack_and_reset_area) refers to entry.o(.ARM.Collect$$$$00000000) for __main
    entry5.o(.ARM.Collect$$$$00000004) refers to init.o(.text) for __scatterload
    fputc.o(i.fputc) refers (Special) to iusesemip.o(.text) for __I$use$semihosting$fputc
    fputc.o(i.fputc) refers (Special) to semi.o(.text) for __semihosting_library_function
    errno.o(i.__aeabi_errno_addr) refers to errno.o(.data) for .data
    errno.o(i.__read_errno) refers to errno.o(.data) for .data
    errno.o(i.__set_errno) refers to errno.o(.data) for .data
    scanf_char.o(.text) refers to _scanf.o(.text) for __vfscanf
    scanf_char.o(.text) refers to isspace_c.o(.text) for isspace
    strtod.o(.text) refers to scanf_fp.o(.text) for _scanf_real
    strtod.o(.text) refers to _sgetc.o(.text) for _sgetc
    strtod.o(.text) refers to isspace_c.o(.text) for isspace
    depilogue.o(.text) refers to llshl.o(.text) for __aeabi_llsl
    depilogue.o(.text) refers to llushr.o(.text) for __aeabi_llsr
    dfixul.o(.text) refers to llushr.o(.text) for __aeabi_llsr
    dfixul.o(.text) refers to llshl.o(.text) for __aeabi_llsl
    init.o(.text) refers to entry5.o(.ARM.Collect$$$$00000004) for __main_after_scatterload
    isspace_c.o(.text) refers to ctype_c.o(.text) for __ctype_lookup
    _scanf.o(.text) refers (Weak) to scanf_fp.o(.text) for _scanf_real
    _scanf.o(.text) refers (Weak) to _scanf_int.o(.text) for _scanf_int
    scanf_fp.o(.text) refers (Special) to iusefp.o(.text) for __I$use$fp
    scanf_fp.o(.text) refers to dfltul.o(.text) for __aeabi_ul2d
    scanf_fp.o(.text) refers to dmul.o(.text) for __aeabi_dmul
    scanf_fp.o(.text) refers to ddiv.o(.text) for __aeabi_ddiv
    scanf_fp.o(.text) refers to scanf_fp.o(i._is_digit) for _is_digit
    scanf_fp.o(.text) refers to d2f.o(.text) for __aeabi_d2f
    ctype_c.o(.text) refers to ctype_c.o(.constdata) for .constdata
    dfltul.o(.text) refers to depilogue.o(.text) for _double_epilogue
    scanf_fp.o(i._is_digit) refers (Special) to iusefp.o(.text) for __I$use$fp


==============================================================================

Removing Unused input sections from the image.

    Removing main.o(.rev16_text), (4 bytes).
    Removing main.o(.revsh_text), (4 bytes).
    Removing main.o(.rrx_text), (6 bytes).
    Removing main.o(i.assert_failed), (2 bytes).
    Removing thread.o(.rev16_text), (4 bytes).
    Removing thread.o(.revsh_text), (4 bytes).
    Removing thread.o(.rrx_text), (6 bytes).
    Removing serial.o(.rev16_text), (4 bytes).
    Removing serial.o(.revsh_text), (4 bytes).
    Removing serial.o(.rrx_text), (6 bytes).
    Removing power.o(.rev16_text), (4 bytes).
    Removing power.o(.revsh_text), (4 bytes).
    Removing power.o(.rrx_text), (6 bytes).
    Removing power.o(.bss), (128 bytes).
    Removing power.o(.data), (1 bytes).
    Removing power.o(.data), (1 bytes).
    Removing power.o(.data), (2 bytes).
    Removing power.o(.data), (1 bytes).
    Removing utils.o(.rev16_text), (4 bytes).
    Removing utils.o(.revsh_text), (4 bytes).
    Removing utils.o(.rrx_text), (6 bytes).
    Removing utils.o(i.byte_arr_cmp), (48 bytes).
    Removing utils.o(i.bytes_to_u32), (26 bytes).
    Removing utils.o(i.cal_sum_str), (32 bytes).
    Removing utils.o(i.calcCrc32), (44 bytes).
    Removing utils.o(i.char_index_of), (56 bytes).
    Removing utils.o(i.char_replace), (28 bytes).
    Removing utils.o(i.compare), (28 bytes).
    Removing utils.o(i.find_char_of), (40 bytes).
    Removing utils.o(i.get_number), (24 bytes).
    Removing utils.o(i.number_check_valid), (38 bytes).
    Removing utils.o(i.sTrim), (54 bytes).
    Removing utils.o(i.str_find), (22 bytes).
    Removing utils.o(i.str_lower), (24 bytes).
    Removing utils.o(i.str_upper), (24 bytes).
    Removing utils.o(i.u32_to_bytes), (16 bytes).
    Removing digital.o(.rev16_text), (4 bytes).
    Removing digital.o(.revsh_text), (4 bytes).
    Removing digital.o(.rrx_text), (6 bytes).
    Removing canbus.o(.rev16_text), (4 bytes).
    Removing canbus.o(.revsh_text), (4 bytes).
    Removing canbus.o(.rrx_text), (6 bytes).
    Removing canbus.o(i.FindFaultCodeODB), (56 bytes).
    Removing canbus.o(i.StoreFaultCodeODBII), (300 bytes).
    Removing canbus.o(.bss), (128 bytes).
    Removing canbus.o(.data), (2 bytes).
    Removing canbus.o(.data), (1 bytes).
    Removing canbus.o(.data), (1 bytes).
    Removing canbus.o(.data), (4 bytes).
    Removing canbus.o(.data), (1 bytes).
    Removing interface.o(.rev16_text), (4 bytes).
    Removing interface.o(.revsh_text), (4 bytes).
    Removing interface.o(.rrx_text), (6 bytes).
    Removing interface.o(i.GetStatusAir), (36 bytes).
    Removing interface.o(i.GetStatusDoor), (36 bytes).
    Removing interface.o(i.reset_buzz_state), (12 bytes).
    Removing interface.o(.data), (1 bytes).
    Removing stm32f30x_it.o(.rev16_text), (4 bytes).
    Removing stm32f30x_it.o(.revsh_text), (4 bytes).
    Removing stm32f30x_it.o(.rrx_text), (6 bytes).
    Removing flash.o(.rev16_text), (4 bytes).
    Removing flash.o(.revsh_text), (4 bytes).
    Removing flash.o(.rrx_text), (6 bytes).
    Removing stm32f30x_adc.o(.rev16_text), (4 bytes).
    Removing stm32f30x_adc.o(.revsh_text), (4 bytes).
    Removing stm32f30x_adc.o(.rrx_text), (6 bytes).
    Removing stm32f30x_adc.o(i.ADC_AnalogWatchdog1SingleChannelConfig), (14 bytes).
    Removing stm32f30x_adc.o(i.ADC_AnalogWatchdog1ThresholdsConfig), (40 bytes).
    Removing stm32f30x_adc.o(i.ADC_AnalogWatchdog2SingleChannelConfig), (28 bytes).
    Removing stm32f30x_adc.o(i.ADC_AnalogWatchdog2ThresholdsConfig), (32 bytes).
    Removing stm32f30x_adc.o(i.ADC_AnalogWatchdog3SingleChannelConfig), (28 bytes).
    Removing stm32f30x_adc.o(i.ADC_AnalogWatchdog3ThresholdsConfig), (32 bytes).
    Removing stm32f30x_adc.o(i.ADC_AnalogWatchdogCmd), (12 bytes).
    Removing stm32f30x_adc.o(i.ADC_AutoDelayCmd), (20 bytes).
    Removing stm32f30x_adc.o(i.ADC_AutoInjectedConvCmd), (20 bytes).
    Removing stm32f30x_adc.o(i.ADC_ChannelOffset1Cmd), (20 bytes).
    Removing stm32f30x_adc.o(i.ADC_ChannelOffset2Cmd), (20 bytes).
    Removing stm32f30x_adc.o(i.ADC_ChannelOffset3Cmd), (20 bytes).
    Removing stm32f30x_adc.o(i.ADC_ChannelOffset4Cmd), (20 bytes).
    Removing stm32f30x_adc.o(i.ADC_ClearCommonFlag), (44 bytes).
    Removing stm32f30x_adc.o(i.ADC_ClearFlag), (4 bytes).
    Removing stm32f30x_adc.o(i.ADC_ClearITPendingBit), (4 bytes).
    Removing stm32f30x_adc.o(i.ADC_CommonStructInit), (14 bytes).
    Removing stm32f30x_adc.o(i.ADC_DeInit), (68 bytes).
    Removing stm32f30x_adc.o(i.ADC_DisableCmd), (10 bytes).
    Removing stm32f30x_adc.o(i.ADC_DiscModeChannelCountConfig), (16 bytes).
    Removing stm32f30x_adc.o(i.ADC_DiscModeCmd), (20 bytes).
    Removing stm32f30x_adc.o(i.ADC_ExternalTriggerConfig), (18 bytes).
    Removing stm32f30x_adc.o(i.ADC_GetCalibrationValue), (6 bytes).
    Removing stm32f30x_adc.o(i.ADC_GetCommonFlagStatus), (48 bytes).
    Removing stm32f30x_adc.o(i.ADC_GetConversionValue), (6 bytes).
    Removing stm32f30x_adc.o(i.ADC_GetDisableCmdStatus), (14 bytes).
    Removing stm32f30x_adc.o(i.ADC_GetDualModeConversionValue), (36 bytes).
    Removing stm32f30x_adc.o(i.ADC_GetITStatus), (26 bytes).
    Removing stm32f30x_adc.o(i.ADC_GetInjectedConversionValue), (16 bytes).
    Removing stm32f30x_adc.o(i.ADC_GetStartConversionStatus), (14 bytes).
    Removing stm32f30x_adc.o(i.ADC_GetStartInjectedConversionStatus), (14 bytes).
    Removing stm32f30x_adc.o(i.ADC_ITConfig), (16 bytes).
    Removing stm32f30x_adc.o(i.ADC_InjectedChannelSampleTimeConfig), (62 bytes).
    Removing stm32f30x_adc.o(i.ADC_InjectedDiscModeCmd), (20 bytes).
    Removing stm32f30x_adc.o(i.ADC_InjectedInit), (44 bytes).
    Removing stm32f30x_adc.o(i.ADC_InjectedStructInit), (20 bytes).
    Removing stm32f30x_adc.o(i.ADC_RegularChannelSequencerLengthConfig), (18 bytes).
    Removing stm32f30x_adc.o(i.ADC_SelectDifferentialMode), (20 bytes).
    Removing stm32f30x_adc.o(i.ADC_SelectQueueOfContextMode), (20 bytes).
    Removing stm32f30x_adc.o(i.ADC_SetCalibrationValue), (6 bytes).
    Removing stm32f30x_adc.o(i.ADC_SetChannelOffset1), (32 bytes).
    Removing stm32f30x_adc.o(i.ADC_SetChannelOffset2), (32 bytes).
    Removing stm32f30x_adc.o(i.ADC_SetChannelOffset3), (32 bytes).
    Removing stm32f30x_adc.o(i.ADC_SetChannelOffset4), (32 bytes).
    Removing stm32f30x_adc.o(i.ADC_StartInjectedConversion), (10 bytes).
    Removing stm32f30x_adc.o(i.ADC_StopConversion), (10 bytes).
    Removing stm32f30x_adc.o(i.ADC_StopInjectedConversion), (10 bytes).
    Removing stm32f30x_adc.o(i.ADC_VbatCmd), (28 bytes).
    Removing stm32f30x_adc.o(i.ADC_VrefintCmd), (68 bytes).
    Removing stm32f30x_can.o(.rev16_text), (4 bytes).
    Removing stm32f30x_can.o(.revsh_text), (4 bytes).
    Removing stm32f30x_can.o(.rrx_text), (6 bytes).
    Removing stm32f30x_can.o(i.CAN_CancelTransmit), (36 bytes).
    Removing stm32f30x_can.o(i.CAN_ClearFlag), (48 bytes).
    Removing stm32f30x_can.o(i.CAN_DBGFreeze), (20 bytes).
    Removing stm32f30x_can.o(i.CAN_FIFORelease), (22 bytes).
    Removing stm32f30x_can.o(i.CAN_GetFlagStatus), (52 bytes).
    Removing stm32f30x_can.o(i.CAN_GetLSBTransmitErrorCounter), (8 bytes).
    Removing stm32f30x_can.o(i.CAN_GetLastErrorCode), (10 bytes).
    Removing stm32f30x_can.o(i.CAN_GetReceiveErrorCounter), (6 bytes).
    Removing stm32f30x_can.o(i.CAN_MessagePending), (22 bytes).
    Removing stm32f30x_can.o(i.CAN_OperatingModeRequest), (140 bytes).
    Removing stm32f30x_can.o(i.CAN_SlaveStartBank), (44 bytes).
    Removing stm32f30x_can.o(i.CAN_Sleep), (30 bytes).
    Removing stm32f30x_can.o(i.CAN_TTComModeCmd), (90 bytes).
    Removing stm32f30x_can.o(i.CAN_TransmitStatus), (108 bytes).
    Removing stm32f30x_can.o(i.CAN_WakeUp), (40 bytes).
    Removing stm32f30x_comp.o(.rev16_text), (4 bytes).
    Removing stm32f30x_comp.o(.revsh_text), (4 bytes).
    Removing stm32f30x_comp.o(.rrx_text), (6 bytes).
    Removing stm32f30x_comp.o(i.COMP_Cmd), (28 bytes).
    Removing stm32f30x_comp.o(i.COMP_DeInit), (16 bytes).
    Removing stm32f30x_comp.o(i.COMP_GetOutputLevel), (24 bytes).
    Removing stm32f30x_comp.o(i.COMP_Init), (48 bytes).
    Removing stm32f30x_comp.o(i.COMP_LockConfig), (20 bytes).
    Removing stm32f30x_comp.o(i.COMP_StructInit), (20 bytes).
    Removing stm32f30x_comp.o(i.COMP_SwitchCmd), (28 bytes).
    Removing stm32f30x_comp.o(i.COMP_WindowCmd), (28 bytes).
    Removing stm32f30x_crc.o(.rev16_text), (4 bytes).
    Removing stm32f30x_crc.o(.revsh_text), (4 bytes).
    Removing stm32f30x_crc.o(.rrx_text), (6 bytes).
    Removing stm32f30x_crc.o(i.CRC_CalcBlockCRC), (28 bytes).
    Removing stm32f30x_crc.o(i.CRC_CalcCRC), (12 bytes).
    Removing stm32f30x_crc.o(i.CRC_CalcCRC16bits), (12 bytes).
    Removing stm32f30x_crc.o(i.CRC_CalcCRC8bits), (12 bytes).
    Removing stm32f30x_crc.o(i.CRC_DeInit), (32 bytes).
    Removing stm32f30x_crc.o(i.CRC_GetCRC), (12 bytes).
    Removing stm32f30x_crc.o(i.CRC_GetIDRegister), (12 bytes).
    Removing stm32f30x_crc.o(i.CRC_PolynomialSizeSelect), (20 bytes).
    Removing stm32f30x_crc.o(i.CRC_ResetDR), (16 bytes).
    Removing stm32f30x_crc.o(i.CRC_ReverseInputDataSelect), (20 bytes).
    Removing stm32f30x_crc.o(i.CRC_ReverseOutputDataCmd), (28 bytes).
    Removing stm32f30x_crc.o(i.CRC_SetIDRegister), (12 bytes).
    Removing stm32f30x_crc.o(i.CRC_SetInitRegister), (12 bytes).
    Removing stm32f30x_crc.o(i.CRC_SetPolynomial), (12 bytes).
    Removing stm32f30x_dac.o(.rev16_text), (4 bytes).
    Removing stm32f30x_dac.o(.revsh_text), (4 bytes).
    Removing stm32f30x_dac.o(.rrx_text), (6 bytes).
    Removing stm32f30x_dac.o(i.DAC_ClearFlag), (6 bytes).
    Removing stm32f30x_dac.o(i.DAC_ClearITPendingBit), (6 bytes).
    Removing stm32f30x_dac.o(i.DAC_Cmd), (18 bytes).
    Removing stm32f30x_dac.o(i.DAC_DMACmd), (20 bytes).
    Removing stm32f30x_dac.o(i.DAC_DeInit), (44 bytes).
    Removing stm32f30x_dac.o(i.DAC_DualSoftwareTriggerCmd), (20 bytes).
    Removing stm32f30x_dac.o(i.DAC_GetDataOutputValue), (16 bytes).
    Removing stm32f30x_dac.o(i.DAC_GetFlagStatus), (16 bytes).
    Removing stm32f30x_dac.o(i.DAC_GetITStatus), (26 bytes).
    Removing stm32f30x_dac.o(i.DAC_ITConfig), (16 bytes).
    Removing stm32f30x_dac.o(i.DAC_Init), (34 bytes).
    Removing stm32f30x_dac.o(i.DAC_SetChannel1Data), (12 bytes).
    Removing stm32f30x_dac.o(i.DAC_SetChannel2Data), (12 bytes).
    Removing stm32f30x_dac.o(i.DAC_SetDualChannelData), (20 bytes).
    Removing stm32f30x_dac.o(i.DAC_SoftwareTriggerCmd), (22 bytes).
    Removing stm32f30x_dac.o(i.DAC_StructInit), (14 bytes).
    Removing stm32f30x_dac.o(i.DAC_WaveGenerationCmd), (16 bytes).
    Removing stm32f30x_dbgmcu.o(.rev16_text), (4 bytes).
    Removing stm32f30x_dbgmcu.o(.revsh_text), (4 bytes).
    Removing stm32f30x_dbgmcu.o(.rrx_text), (6 bytes).
    Removing stm32f30x_dbgmcu.o(i.DBGMCU_APB1PeriphConfig), (24 bytes).
    Removing stm32f30x_dbgmcu.o(i.DBGMCU_APB2PeriphConfig), (24 bytes).
    Removing stm32f30x_dbgmcu.o(i.DBGMCU_Config), (24 bytes).
    Removing stm32f30x_dbgmcu.o(i.DBGMCU_GetDEVID), (16 bytes).
    Removing stm32f30x_dbgmcu.o(i.DBGMCU_GetREVID), (12 bytes).
    Removing stm32f30x_dma.o(.rev16_text), (4 bytes).
    Removing stm32f30x_dma.o(.revsh_text), (4 bytes).
    Removing stm32f30x_dma.o(.rrx_text), (6 bytes).
    Removing stm32f30x_dma.o(i.DMA_ClearFlag), (24 bytes).
    Removing stm32f30x_dma.o(i.DMA_GetCurrDataCounter), (6 bytes).
    Removing stm32f30x_dma.o(i.DMA_GetFlagStatus), (32 bytes).
    Removing stm32f30x_dma.o(i.DMA_SetCurrDataCounter), (4 bytes).
    Removing stm32f30x_dma.o(i.DMA_StructInit), (26 bytes).
    Removing stm32f30x_exti.o(.rev16_text), (4 bytes).
    Removing stm32f30x_exti.o(.revsh_text), (4 bytes).
    Removing stm32f30x_exti.o(.rrx_text), (6 bytes).
    Removing stm32f30x_exti.o(i.EXTI_ClearFlag), (28 bytes).
    Removing stm32f30x_exti.o(i.EXTI_DeInit), (72 bytes).
    Removing stm32f30x_exti.o(i.EXTI_GenerateSWInterrupt), (32 bytes).
    Removing stm32f30x_exti.o(i.EXTI_GetFlagStatus), (36 bytes).
    Removing stm32f30x_exti.o(i.EXTI_StructInit), (14 bytes).
    Removing stm32f30x_flash.o(.rev16_text), (4 bytes).
    Removing stm32f30x_flash.o(.revsh_text), (4 bytes).
    Removing stm32f30x_flash.o(.rrx_text), (6 bytes).
    Removing stm32f30x_flash.o(i.FLASH_EraseAllPages), (56 bytes).
    Removing stm32f30x_flash.o(i.FLASH_GetFlagStatus), (20 bytes).
    Removing stm32f30x_flash.o(i.FLASH_HalfCycleAccessCmd), (28 bytes).
    Removing stm32f30x_flash.o(i.FLASH_ITConfig), (24 bytes).
    Removing stm32f30x_flash.o(i.FLASH_OB_BOOTConfig), (80 bytes).
    Removing stm32f30x_flash.o(i.FLASH_OB_EnableWRP), (152 bytes).
    Removing stm32f30x_flash.o(i.FLASH_OB_Erase), (104 bytes).
    Removing stm32f30x_flash.o(i.FLASH_OB_GetRDP), (20 bytes).
    Removing stm32f30x_flash.o(i.FLASH_OB_GetUser), (16 bytes).
    Removing stm32f30x_flash.o(i.FLASH_OB_GetWRP), (12 bytes).
    Removing stm32f30x_flash.o(i.FLASH_OB_Launch), (16 bytes).
    Removing stm32f30x_flash.o(i.FLASH_OB_Lock), (16 bytes).
    Removing stm32f30x_flash.o(i.FLASH_OB_RDPConfig), (108 bytes).
    Removing stm32f30x_flash.o(i.FLASH_OB_SRAMParityConfig), (64 bytes).
    Removing stm32f30x_flash.o(i.FLASH_OB_Unlock), (32 bytes).
    Removing stm32f30x_flash.o(i.FLASH_OB_UserConfig), (92 bytes).
    Removing stm32f30x_flash.o(i.FLASH_OB_VDDAConfig), (80 bytes).
    Removing stm32f30x_flash.o(i.FLASH_OB_WriteUser), (80 bytes).
    Removing stm32f30x_flash.o(i.FLASH_PrefetchBufferCmd), (28 bytes).
    Removing stm32f30x_flash.o(i.FLASH_ProgramHalfWord), (52 bytes).
    Removing stm32f30x_flash.o(i.FLASH_ProgramOptionByteData), (56 bytes).
    Removing stm32f30x_flash.o(i.FLASH_SetLatency), (20 bytes).
    Removing stm32f30x_fmc.o(.rev16_text), (4 bytes).
    Removing stm32f30x_fmc.o(.revsh_text), (4 bytes).
    Removing stm32f30x_fmc.o(.rrx_text), (6 bytes).
    Removing stm32f30x_fmc.o(i.FMC_ClearFlag), (38 bytes).
    Removing stm32f30x_fmc.o(i.FMC_ClearITPendingBit), (42 bytes).
    Removing stm32f30x_fmc.o(i.FMC_GetECC), (18 bytes).
    Removing stm32f30x_fmc.o(i.FMC_GetFlagStatus), (40 bytes).
    Removing stm32f30x_fmc.o(i.FMC_GetITStatus), (50 bytes).
    Removing stm32f30x_fmc.o(i.FMC_ITConfig), (72 bytes).
    Removing stm32f30x_fmc.o(i.FMC_NANDCmd), (56 bytes).
    Removing stm32f30x_fmc.o(i.FMC_NANDDeInit), (40 bytes).
    Removing stm32f30x_fmc.o(i.FMC_NANDECCCmd), (56 bytes).
    Removing stm32f30x_fmc.o(i.FMC_NANDInit), (104 bytes).
    Removing stm32f30x_fmc.o(i.FMC_NANDStructInit), (54 bytes).
    Removing stm32f30x_fmc.o(i.FMC_NORSRAMCmd), (32 bytes).
    Removing stm32f30x_fmc.o(i.FMC_NORSRAMDeInit), (38 bytes).
    Removing stm32f30x_fmc.o(i.FMC_NORSRAMInit), (216 bytes).
    Removing stm32f30x_fmc.o(i.FMC_NORSRAMStructInit), (102 bytes).
    Removing stm32f30x_fmc.o(i.FMC_PCCARDCmd), (32 bytes).
    Removing stm32f30x_fmc.o(i.FMC_PCCARDDeInit), (26 bytes).
    Removing stm32f30x_fmc.o(i.FMC_PCCARDInit), (102 bytes).
    Removing stm32f30x_fmc.o(i.FMC_PCCARDStructInit), (60 bytes).
    Removing stm32f30x_gpio.o(.rev16_text), (4 bytes).
    Removing stm32f30x_gpio.o(.revsh_text), (4 bytes).
    Removing stm32f30x_gpio.o(.rrx_text), (6 bytes).
    Removing stm32f30x_gpio.o(i.GPIO_DeInit), (144 bytes).
    Removing stm32f30x_gpio.o(i.GPIO_PinLockConfig), (16 bytes).
    Removing stm32f30x_gpio.o(i.GPIO_ReadInputData), (4 bytes).
    Removing stm32f30x_gpio.o(i.GPIO_ReadOutputData), (4 bytes).
    Removing stm32f30x_gpio.o(i.GPIO_ReadOutputDataBit), (14 bytes).
    Removing stm32f30x_gpio.o(i.GPIO_StructInit), (20 bytes).
    Removing stm32f30x_gpio.o(i.GPIO_Write), (4 bytes).
    Removing stm32f30x_gpio.o(i.GPIO_WriteBit), (10 bytes).
    Removing stm32f30x_hrtim.o(.rev16_text), (4 bytes).
    Removing stm32f30x_hrtim.o(.revsh_text), (4 bytes).
    Removing stm32f30x_hrtim.o(.rrx_text), (6 bytes).
    Removing stm32f30x_hrtim.o(i.HRTIM_ADCTriggerConfig), (94 bytes).
    Removing stm32f30x_hrtim.o(i.HRTIM_BurstDMAConfig), (50 bytes).
    Removing stm32f30x_hrtim.o(i.HRTIM_BurstModeConfig), (60 bytes).
    Removing stm32f30x_hrtim.o(i.HRTIM_BurstModeCtl), (16 bytes).
    Removing stm32f30x_hrtim.o(i.HRTIM_ChopperModeConfig), (32 bytes).
    Removing stm32f30x_hrtim.o(i.HRTIM_ClearCommonFlag), (12 bytes).
    Removing stm32f30x_hrtim.o(i.HRTIM_ClearCommonITPendingBit), (12 bytes).
    Removing stm32f30x_hrtim.o(i.HRTIM_ClearFlag), (36 bytes).
    Removing stm32f30x_hrtim.o(i.HRTIM_ClearITPendingBit), (36 bytes).
    Removing stm32f30x_hrtim.o(i.HRTIM_CompareUnitConfig), (96 bytes).
    Removing stm32f30x_hrtim.o(i.HRTIM_DLLCalibrationStart), (34 bytes).
    Removing stm32f30x_hrtim.o(i.HRTIM_DMACmd), (50 bytes).
    Removing stm32f30x_hrtim.o(i.HRTIM_DeInit), (24 bytes).
    Removing stm32f30x_hrtim.o(i.HRTIM_DeadTimeConfig), (60 bytes).
    Removing stm32f30x_hrtim.o(i.HRTIM_EventConfig), (4 bytes).
    Removing stm32f30x_hrtim.o(i.HRTIM_EventPrescalerConfig), (16 bytes).
    Removing stm32f30x_hrtim.o(i.HRTIM_ExternalEventConfig), (418 bytes).
    Removing stm32f30x_hrtim.o(i.HRTIM_FaultConfig), (178 bytes).
    Removing stm32f30x_hrtim.o(i.HRTIM_FaultModeCtl), (90 bytes).
    Removing stm32f30x_hrtim.o(i.HRTIM_FaultPrescalerConfig), (16 bytes).
    Removing stm32f30x_hrtim.o(i.HRTIM_GetBurstStatus), (10 bytes).
    Removing stm32f30x_hrtim.o(i.HRTIM_GetCapturedValue), (28 bytes).
    Removing stm32f30x_hrtim.o(i.HRTIM_GetCommonFlagStatus), (16 bytes).
    Removing stm32f30x_hrtim.o(i.HRTIM_GetCommonITStatus), (30 bytes).
    Removing stm32f30x_hrtim.o(i.HRTIM_GetCurrentPushPullStatus), (14 bytes).
    Removing stm32f30x_hrtim.o(i.HRTIM_GetDelayedProtectionStatus), (82 bytes).
    Removing stm32f30x_hrtim.o(i.HRTIM_GetFlagStatus), (42 bytes).
    Removing stm32f30x_hrtim.o(i.HRTIM_GetITStatus), (62 bytes).
    Removing stm32f30x_hrtim.o(i.HRTIM_GetIdlePushPullStatus), (14 bytes).
    Removing stm32f30x_hrtim.o(i.HRTIM_ITCommonConfig), (20 bytes).
    Removing stm32f30x_hrtim.o(i.HRTIM_ITConfig), (50 bytes).
    Removing stm32f30x_hrtim.o(i.HRTIM_MasterBase_Config), (42 bytes).
    Removing stm32f30x_hrtim.o(i.HRTIM_MasterSetCompare), (32 bytes).
    Removing stm32f30x_hrtim.o(i.HRTIM_OutputConfig), (142 bytes).
    Removing stm32f30x_hrtim.o(i.HRTIM_SimpleBaseStart), (20 bytes).
    Removing stm32f30x_hrtim.o(i.HRTIM_SimpleBaseStop), (152 bytes).
    Removing stm32f30x_hrtim.o(i.HRTIM_SimpleBase_Init), (14 bytes).
    Removing stm32f30x_hrtim.o(i.HRTIM_SimpleCaptureChannelConfig), (160 bytes).
    Removing stm32f30x_hrtim.o(i.HRTIM_SimpleCaptureStart), (20 bytes).
    Removing stm32f30x_hrtim.o(i.HRTIM_SimpleCaptureStop), (196 bytes).
    Removing stm32f30x_hrtim.o(i.HRTIM_SimpleCapture_Init), (4 bytes).
    Removing stm32f30x_hrtim.o(i.HRTIM_SimpleOCChannelConfig), (182 bytes).
    Removing stm32f30x_hrtim.o(i.HRTIM_SimpleOCStart), (28 bytes).
    Removing stm32f30x_hrtim.o(i.HRTIM_SimpleOCStop), (164 bytes).
    Removing stm32f30x_hrtim.o(i.HRTIM_SimpleOC_Init), (4 bytes).
    Removing stm32f30x_hrtim.o(i.HRTIM_SimpleOnePulseChannelConfig), (172 bytes).
    Removing stm32f30x_hrtim.o(i.HRTIM_SimpleOnePulseStart), (28 bytes).
    Removing stm32f30x_hrtim.o(i.HRTIM_SimpleOnePulseStop), (164 bytes).
    Removing stm32f30x_hrtim.o(i.HRTIM_SimpleOnePulse_Init), (4 bytes).
    Removing stm32f30x_hrtim.o(i.HRTIM_SimplePWMChannelConfig), (136 bytes).
    Removing stm32f30x_hrtim.o(i.HRTIM_SimplePWMStart), (28 bytes).
    Removing stm32f30x_hrtim.o(i.HRTIM_SimplePWMStop), (164 bytes).
    Removing stm32f30x_hrtim.o(i.HRTIM_SimplePWM_Init), (4 bytes).
    Removing stm32f30x_hrtim.o(i.HRTIM_SlaveSetCompare), (44 bytes).
    Removing stm32f30x_hrtim.o(i.HRTIM_SoftwareCapture), (30 bytes).
    Removing stm32f30x_hrtim.o(i.HRTIM_SoftwareReset), (12 bytes).
    Removing stm32f30x_hrtim.o(i.HRTIM_SoftwareUpdate), (12 bytes).
    Removing stm32f30x_hrtim.o(i.HRTIM_SynchronizationConfig), (30 bytes).
    Removing stm32f30x_hrtim.o(i.HRTIM_TIM_ResetConfig), (114 bytes).
    Removing stm32f30x_hrtim.o(i.HRTIM_TimerEventFilteringConfig), (194 bytes).
    Removing stm32f30x_hrtim.o(i.HRTIM_TimingUnitBase_Config), (48 bytes).
    Removing stm32f30x_hrtim.o(i.HRTIM_TimingUnitWaveform_Config), (160 bytes).
    Removing stm32f30x_hrtim.o(i.HRTIM_WaveformCaptureConfig), (28 bytes).
    Removing stm32f30x_hrtim.o(i.HRTIM_WaveformCompareConfig), (120 bytes).
    Removing stm32f30x_hrtim.o(i.HRTIM_WaveformCounterStart), (8 bytes).
    Removing stm32f30x_hrtim.o(i.HRTIM_WaveformCounterStop), (8 bytes).
    Removing stm32f30x_hrtim.o(i.HRTIM_WaveformGetOutputLevel), (82 bytes).
    Removing stm32f30x_hrtim.o(i.HRTIM_WaveformGetOutputState), (120 bytes).
    Removing stm32f30x_hrtim.o(i.HRTIM_WaveformOutputConfig), (4 bytes).
    Removing stm32f30x_hrtim.o(i.HRTIM_WaveformOutputStart), (6 bytes).
    Removing stm32f30x_hrtim.o(i.HRTIM_WaveformOutputStop), (6 bytes).
    Removing stm32f30x_hrtim.o(i.HRTIM_WaveformSetOutputLevel), (94 bytes).
    Removing stm32f30x_hrtim.o(i.HRTIM_WaveformTimerConfig), (88 bytes).
    Removing stm32f30x_hrtim.o(i.HRTIM_Waveform_Init), (116 bytes).
    Removing stm32f30x_hrtim.o(.data), (24 bytes).
    Removing stm32f30x_i2c.o(.rev16_text), (4 bytes).
    Removing stm32f30x_i2c.o(.revsh_text), (4 bytes).
    Removing stm32f30x_i2c.o(.rrx_text), (6 bytes).
    Removing stm32f30x_i2c.o(i.I2C_10BitAddressHeaderCmd), (20 bytes).
    Removing stm32f30x_i2c.o(i.I2C_10BitAddressingModeCmd), (20 bytes).
    Removing stm32f30x_i2c.o(i.I2C_AcknowledgeConfig), (20 bytes).
    Removing stm32f30x_i2c.o(i.I2C_AutoEndCmd), (20 bytes).
    Removing stm32f30x_i2c.o(i.I2C_CalculatePEC), (20 bytes).
    Removing stm32f30x_i2c.o(i.I2C_ClearFlag), (4 bytes).
    Removing stm32f30x_i2c.o(i.I2C_ClearITPendingBit), (4 bytes).
    Removing stm32f30x_i2c.o(i.I2C_ClockTimeoutCmd), (20 bytes).
    Removing stm32f30x_i2c.o(i.I2C_Cmd), (20 bytes).
    Removing stm32f30x_i2c.o(i.I2C_DMACmd), (16 bytes).
    Removing stm32f30x_i2c.o(i.I2C_DeInit), (44 bytes).
    Removing stm32f30x_i2c.o(i.I2C_DualAddressCmd), (20 bytes).
    Removing stm32f30x_i2c.o(i.I2C_ExtendedClockTimeoutCmd), (20 bytes).
    Removing stm32f30x_i2c.o(i.I2C_GeneralCallCmd), (20 bytes).
    Removing stm32f30x_i2c.o(i.I2C_GenerateSTART), (20 bytes).
    Removing stm32f30x_i2c.o(i.I2C_GenerateSTOP), (20 bytes).
    Removing stm32f30x_i2c.o(i.I2C_GetAddressMatched), (10 bytes).
    Removing stm32f30x_i2c.o(i.I2C_GetFlagStatus), (14 bytes).
    Removing stm32f30x_i2c.o(i.I2C_GetITStatus), (46 bytes).
    Removing stm32f30x_i2c.o(i.I2C_GetPEC), (6 bytes).
    Removing stm32f30x_i2c.o(i.I2C_GetTransferDirection), (18 bytes).
    Removing stm32f30x_i2c.o(i.I2C_ITConfig), (16 bytes).
    Removing stm32f30x_i2c.o(i.I2C_IdleClockTimeoutCmd), (20 bytes).
    Removing stm32f30x_i2c.o(i.I2C_Init), (96 bytes).
    Removing stm32f30x_i2c.o(i.I2C_MasterRequestConfig), (20 bytes).
    Removing stm32f30x_i2c.o(i.I2C_NumberOfBytesConfig), (14 bytes).
    Removing stm32f30x_i2c.o(i.I2C_OwnAddress2Config), (30 bytes).
    Removing stm32f30x_i2c.o(i.I2C_PECRequestCmd), (20 bytes).
    Removing stm32f30x_i2c.o(i.I2C_ReadRegister), (10 bytes).
    Removing stm32f30x_i2c.o(i.I2C_ReceiveData), (6 bytes).
    Removing stm32f30x_i2c.o(i.I2C_ReloadCmd), (20 bytes).
    Removing stm32f30x_i2c.o(i.I2C_SMBusAlertCmd), (20 bytes).
    Removing stm32f30x_i2c.o(i.I2C_SendData), (4 bytes).
    Removing stm32f30x_i2c.o(i.I2C_SlaveAddressConfig), (16 bytes).
    Removing stm32f30x_i2c.o(i.I2C_SlaveByteControlCmd), (20 bytes).
    Removing stm32f30x_i2c.o(i.I2C_SoftwareResetCmd), (20 bytes).
    Removing stm32f30x_i2c.o(i.I2C_StopModeCmd), (20 bytes).
    Removing stm32f30x_i2c.o(i.I2C_StretchClockCmd), (20 bytes).
    Removing stm32f30x_i2c.o(i.I2C_StructInit), (22 bytes).
    Removing stm32f30x_i2c.o(i.I2C_TimeoutAConfig), (16 bytes).
    Removing stm32f30x_i2c.o(i.I2C_TimeoutBConfig), (24 bytes).
    Removing stm32f30x_i2c.o(i.I2C_TransferHandling), (32 bytes).
    Removing stm32f30x_iwdg.o(.rev16_text), (4 bytes).
    Removing stm32f30x_iwdg.o(.revsh_text), (4 bytes).
    Removing stm32f30x_iwdg.o(.rrx_text), (6 bytes).
    Removing stm32f30x_iwdg.o(i.IWDG_Enable), (16 bytes).
    Removing stm32f30x_iwdg.o(i.IWDG_GetFlagStatus), (20 bytes).
    Removing stm32f30x_iwdg.o(i.IWDG_SetPrescaler), (12 bytes).
    Removing stm32f30x_iwdg.o(i.IWDG_SetReload), (12 bytes).
    Removing stm32f30x_iwdg.o(i.IWDG_SetWindowValue), (12 bytes).
    Removing stm32f30x_iwdg.o(i.IWDG_WriteAccessCmd), (12 bytes).
    Removing stm32f30x_misc.o(.rev16_text), (4 bytes).
    Removing stm32f30x_misc.o(.revsh_text), (4 bytes).
    Removing stm32f30x_misc.o(.rrx_text), (6 bytes).
    Removing stm32f30x_misc.o(i.NVIC_PriorityGroupConfig), (20 bytes).
    Removing stm32f30x_misc.o(i.NVIC_SetVectorTable), (20 bytes).
    Removing stm32f30x_misc.o(i.NVIC_SystemLPConfig), (24 bytes).
    Removing stm32f30x_misc.o(i.SysTick_CLKSourceConfig), (24 bytes).
    Removing stm32f30x_opamp.o(.rev16_text), (4 bytes).
    Removing stm32f30x_opamp.o(.revsh_text), (4 bytes).
    Removing stm32f30x_opamp.o(.rrx_text), (6 bytes).
    Removing stm32f30x_opamp.o(i.OPAMP_Cmd), (28 bytes).
    Removing stm32f30x_opamp.o(i.OPAMP_DeInit), (16 bytes).
    Removing stm32f30x_opamp.o(i.OPAMP_GetOutputLevel), (24 bytes).
    Removing stm32f30x_opamp.o(i.OPAMP_Init), (28 bytes).
    Removing stm32f30x_opamp.o(i.OPAMP_LockConfig), (20 bytes).
    Removing stm32f30x_opamp.o(i.OPAMP_OffsetTrimConfig), (28 bytes).
    Removing stm32f30x_opamp.o(i.OPAMP_OffsetTrimModeSelect), (24 bytes).
    Removing stm32f30x_opamp.o(i.OPAMP_PGAConfig), (28 bytes).
    Removing stm32f30x_opamp.o(i.OPAMP_StartCalibration), (28 bytes).
    Removing stm32f30x_opamp.o(i.OPAMP_StructInit), (8 bytes).
    Removing stm32f30x_opamp.o(i.OPAMP_TimerControlledMuxCmd), (28 bytes).
    Removing stm32f30x_opamp.o(i.OPAMP_TimerControlledMuxConfig), (32 bytes).
    Removing stm32f30x_opamp.o(i.OPAMP_VrefConfig), (20 bytes).
    Removing stm32f30x_opamp.o(i.OPAMP_VrefConnectADCCmd), (28 bytes).
    Removing stm32f30x_opamp.o(i.OPAMP_VrefConnectNonInvertingInput), (28 bytes).
    Removing stm32f30x_pwr.o(.rev16_text), (4 bytes).
    Removing stm32f30x_pwr.o(.revsh_text), (4 bytes).
    Removing stm32f30x_pwr.o(.rrx_text), (6 bytes).
    Removing stm32f30x_pwr.o(i.PWR_BackupAccessCmd), (12 bytes).
    Removing stm32f30x_pwr.o(i.PWR_ClearFlag), (16 bytes).
    Removing stm32f30x_pwr.o(i.PWR_DeInit), (24 bytes).
    Removing stm32f30x_pwr.o(i.PWR_EnterSTANDBYMode), (32 bytes).
    Removing stm32f30x_pwr.o(i.PWR_EnterSTOPMode), (52 bytes).
    Removing stm32f30x_pwr.o(i.PWR_EnterSleepMode), (32 bytes).
    Removing stm32f30x_pwr.o(i.PWR_GetFlagStatus), (20 bytes).
    Removing stm32f30x_pwr.o(i.PWR_PVDCmd), (12 bytes).
    Removing stm32f30x_pwr.o(i.PWR_PVDLevelConfig), (20 bytes).
    Removing stm32f30x_pwr.o(i.PWR_WakeUpPinCmd), (24 bytes).
    Removing stm32f30x_rcc.o(.rev16_text), (4 bytes).
    Removing stm32f30x_rcc.o(.revsh_text), (4 bytes).
    Removing stm32f30x_rcc.o(.rrx_text), (6 bytes).
    Removing stm32f30x_rcc.o(i.RCC_AHBPeriphResetCmd), (24 bytes).
    Removing stm32f30x_rcc.o(i.RCC_AdjustHSICalibrationValue), (20 bytes).
    Removing stm32f30x_rcc.o(i.RCC_BackupResetCmd), (12 bytes).
    Removing stm32f30x_rcc.o(i.RCC_ClearFlag), (16 bytes).
    Removing stm32f30x_rcc.o(i.RCC_ClearITPendingBit), (12 bytes).
    Removing stm32f30x_rcc.o(i.RCC_ClockSecuritySystemCmd), (12 bytes).
    Removing stm32f30x_rcc.o(i.RCC_DeInit), (80 bytes).
    Removing stm32f30x_rcc.o(i.RCC_GetFlagStatus), (52 bytes).
    Removing stm32f30x_rcc.o(i.RCC_GetITStatus), (20 bytes).
    Removing stm32f30x_rcc.o(i.RCC_GetSYSCLKSource), (16 bytes).
    Removing stm32f30x_rcc.o(i.RCC_HCLKConfig), (20 bytes).
    Removing stm32f30x_rcc.o(i.RCC_HRTIM1CLKConfig), (24 bytes).
    Removing stm32f30x_rcc.o(i.RCC_HSEConfig), (16 bytes).
    Removing stm32f30x_rcc.o(i.RCC_HSICmd), (12 bytes).
    Removing stm32f30x_rcc.o(i.RCC_I2CCLKConfig), (52 bytes).
    Removing stm32f30x_rcc.o(i.RCC_I2SCLKConfig), (12 bytes).
    Removing stm32f30x_rcc.o(i.RCC_ITConfig), (24 bytes).
    Removing stm32f30x_rcc.o(i.RCC_LSEConfig), (32 bytes).
    Removing stm32f30x_rcc.o(i.RCC_LSEDriveConfig), (24 bytes).
    Removing stm32f30x_rcc.o(i.RCC_LSICmd), (12 bytes).
    Removing stm32f30x_rcc.o(i.RCC_MCOConfig), (20 bytes).
    Removing stm32f30x_rcc.o(i.RCC_PCLK1Config), (20 bytes).
    Removing stm32f30x_rcc.o(i.RCC_PCLK2Config), (20 bytes).
    Removing stm32f30x_rcc.o(i.RCC_PLLCmd), (12 bytes).
    Removing stm32f30x_rcc.o(i.RCC_PLLConfig), (24 bytes).
    Removing stm32f30x_rcc.o(i.RCC_PREDIV1Config), (20 bytes).
    Removing stm32f30x_rcc.o(i.RCC_RTCCLKCmd), (12 bytes).
    Removing stm32f30x_rcc.o(i.RCC_RTCCLKConfig), (16 bytes).
    Removing stm32f30x_rcc.o(i.RCC_SYSCLKConfig), (20 bytes).
    Removing stm32f30x_rcc.o(i.RCC_TIMCLKConfig), (96 bytes).
    Removing stm32f30x_rcc.o(i.RCC_USARTCLKConfig), (72 bytes).
    Removing stm32f30x_rcc.o(i.RCC_USBCLKConfig), (12 bytes).
    Removing stm32f30x_rcc.o(i.RCC_WaitForHSEStartUp), (44 bytes).
    Removing stm32f30x_rtc.o(.rev16_text), (4 bytes).
    Removing stm32f30x_rtc.o(.revsh_text), (4 bytes).
    Removing stm32f30x_rtc.o(.rrx_text), (6 bytes).
    Removing stm32f30x_rtc.o(i.RTC_AlarmCmd), (84 bytes).
    Removing stm32f30x_rtc.o(i.RTC_AlarmStructInit), (20 bytes).
    Removing stm32f30x_rtc.o(i.RTC_AlarmSubSecondConfig), (44 bytes).
    Removing stm32f30x_rtc.o(i.RTC_Bcd2ToByte), (18 bytes).
    Removing stm32f30x_rtc.o(i.RTC_BypassShadowCmd), (44 bytes).
    Removing stm32f30x_rtc.o(i.RTC_ByteToBcd2), (24 bytes).
    Removing stm32f30x_rtc.o(i.RTC_CalibOutputCmd), (44 bytes).
    Removing stm32f30x_rtc.o(i.RTC_CalibOutputConfig), (40 bytes).
    Removing stm32f30x_rtc.o(i.RTC_ClearFlag), (28 bytes).
    Removing stm32f30x_rtc.o(i.RTC_ClearITPendingBit), (28 bytes).
    Removing stm32f30x_rtc.o(i.RTC_DateStructInit), (14 bytes).
    Removing stm32f30x_rtc.o(i.RTC_DayLightSavingConfig), (44 bytes).
    Removing stm32f30x_rtc.o(i.RTC_DeInit), (172 bytes).
    Removing stm32f30x_rtc.o(i.RTC_EnterInitMode), (60 bytes).
    Removing stm32f30x_rtc.o(i.RTC_ExitInitMode), (16 bytes).
    Removing stm32f30x_rtc.o(i.RTC_GetAlarm), (108 bytes).
    Removing stm32f30x_rtc.o(i.RTC_GetAlarmSubSecond), (28 bytes).
    Removing stm32f30x_rtc.o(i.RTC_GetDate), (80 bytes).
    Removing stm32f30x_rtc.o(i.RTC_GetFlagStatus), (28 bytes).
    Removing stm32f30x_rtc.o(i.RTC_GetITStatus), (64 bytes).
    Removing stm32f30x_rtc.o(i.RTC_GetStoreOperation), (16 bytes).
    Removing stm32f30x_rtc.o(i.RTC_GetSubSecond), (16 bytes).
    Removing stm32f30x_rtc.o(i.RTC_GetTime), (80 bytes).
    Removing stm32f30x_rtc.o(i.RTC_GetTimeStamp), (136 bytes).
    Removing stm32f30x_rtc.o(i.RTC_GetTimeStampSubSecond), (12 bytes).
    Removing stm32f30x_rtc.o(i.RTC_GetWakeUpCounter), (12 bytes).
    Removing stm32f30x_rtc.o(i.RTC_ITConfig), (64 bytes).
    Removing stm32f30x_rtc.o(i.RTC_Init), (80 bytes).
    Removing stm32f30x_rtc.o(i.RTC_OutputConfig), (44 bytes).
    Removing stm32f30x_rtc.o(i.RTC_OutputTypeConfig), (24 bytes).
    Removing stm32f30x_rtc.o(i.RTC_ReadBackupRegister), (20 bytes).
    Removing stm32f30x_rtc.o(i.RTC_RefClockCmd), (60 bytes).
    Removing stm32f30x_rtc.o(i.RTC_SetAlarm), (164 bytes).
    Removing stm32f30x_rtc.o(i.RTC_SetDate), (152 bytes).
    Removing stm32f30x_rtc.o(i.RTC_SetTime), (160 bytes).
    Removing stm32f30x_rtc.o(i.RTC_SetWakeUpCounter), (28 bytes).
    Removing stm32f30x_rtc.o(i.RTC_SmoothCalibConfig), (72 bytes).
    Removing stm32f30x_rtc.o(i.RTC_StructInit), (14 bytes).
    Removing stm32f30x_rtc.o(i.RTC_SynchroShiftConfig), (88 bytes).
    Removing stm32f30x_rtc.o(i.RTC_TamperCmd), (24 bytes).
    Removing stm32f30x_rtc.o(i.RTC_TamperFilterConfig), (24 bytes).
    Removing stm32f30x_rtc.o(i.RTC_TamperPinsPrechargeDuration), (24 bytes).
    Removing stm32f30x_rtc.o(i.RTC_TamperPullUpCmd), (28 bytes).
    Removing stm32f30x_rtc.o(i.RTC_TamperSamplingFreqConfig), (24 bytes).
    Removing stm32f30x_rtc.o(i.RTC_TamperTriggerConfig), (28 bytes).
    Removing stm32f30x_rtc.o(i.RTC_TimeStampCmd), (48 bytes).
    Removing stm32f30x_rtc.o(i.RTC_TimeStampOnTamperDetectionCmd), (28 bytes).
    Removing stm32f30x_rtc.o(i.RTC_TimeStructInit), (12 bytes).
    Removing stm32f30x_rtc.o(i.RTC_WaitForSynchro), (88 bytes).
    Removing stm32f30x_rtc.o(i.RTC_WakeUpClockConfig), (40 bytes).
    Removing stm32f30x_rtc.o(i.RTC_WakeUpCmd), (88 bytes).
    Removing stm32f30x_rtc.o(i.RTC_WriteBackupRegister), (20 bytes).
    Removing stm32f30x_rtc.o(i.RTC_WriteProtectionCmd), (24 bytes).
    Removing stm32f30x_spi.o(.rev16_text), (4 bytes).
    Removing stm32f30x_spi.o(.revsh_text), (4 bytes).
    Removing stm32f30x_spi.o(.rrx_text), (6 bytes).
    Removing stm32f30x_spi.o(i.I2S_Cmd), (20 bytes).
    Removing stm32f30x_spi.o(i.I2S_FullDuplexConfig), (58 bytes).
    Removing stm32f30x_spi.o(i.I2S_Init), (150 bytes).
    Removing stm32f30x_spi.o(i.I2S_StructInit), (18 bytes).
    Removing stm32f30x_spi.o(i.SPI_BiDirectionalLineConfig), (22 bytes).
    Removing stm32f30x_spi.o(i.SPI_CRCLengthConfig), (16 bytes).
    Removing stm32f30x_spi.o(i.SPI_CalculateCRC), (20 bytes).
    Removing stm32f30x_spi.o(i.SPI_Cmd), (20 bytes).
    Removing stm32f30x_spi.o(i.SPI_DataSizeConfig), (12 bytes).
    Removing stm32f30x_spi.o(i.SPI_GetCRC), (12 bytes).
    Removing stm32f30x_spi.o(i.SPI_GetCRCPolynomial), (4 bytes).
    Removing stm32f30x_spi.o(i.SPI_GetReceptionFIFOStatus), (8 bytes).
    Removing stm32f30x_spi.o(i.SPI_GetTransmissionFIFOStatus), (8 bytes).
    Removing stm32f30x_spi.o(i.SPI_I2S_ClearFlag), (6 bytes).
    Removing stm32f30x_spi.o(i.SPI_I2S_DMACmd), (16 bytes).
    Removing stm32f30x_spi.o(i.SPI_I2S_DeInit), (100 bytes).
    Removing stm32f30x_spi.o(i.SPI_I2S_GetFlagStatus), (14 bytes).
    Removing stm32f30x_spi.o(i.SPI_I2S_GetITStatus), (44 bytes).
    Removing stm32f30x_spi.o(i.SPI_I2S_ITConfig), (24 bytes).
    Removing stm32f30x_spi.o(i.SPI_I2S_ReceiveData16), (4 bytes).
    Removing stm32f30x_spi.o(i.SPI_I2S_SendData16), (4 bytes).
    Removing stm32f30x_spi.o(i.SPI_Init), (122 bytes).
    Removing stm32f30x_spi.o(i.SPI_LastDMATransferCmd), (16 bytes).
    Removing stm32f30x_spi.o(i.SPI_NSSInternalSoftwareConfig), (24 bytes).
    Removing stm32f30x_spi.o(i.SPI_NSSPulseModeCmd), (20 bytes).
    Removing stm32f30x_spi.o(i.SPI_ReceiveData8), (4 bytes).
    Removing stm32f30x_spi.o(i.SPI_RxFIFOThresholdConfig), (16 bytes).
    Removing stm32f30x_spi.o(i.SPI_SSOutputCmd), (20 bytes).
    Removing stm32f30x_spi.o(i.SPI_SendData8), (4 bytes).
    Removing stm32f30x_spi.o(i.SPI_StructInit), (28 bytes).
    Removing stm32f30x_spi.o(i.SPI_TIModeCmd), (20 bytes).
    Removing stm32f30x_spi.o(i.SPI_TransmitCRC), (10 bytes).
    Removing stm32f30x_syscfg.o(.rev16_text), (4 bytes).
    Removing stm32f30x_syscfg.o(.revsh_text), (4 bytes).
    Removing stm32f30x_syscfg.o(.rrx_text), (6 bytes).
    Removing stm32f30x_syscfg.o(i.SYSCFG_ADCTriggerRemapConfig), (24 bytes).
    Removing stm32f30x_syscfg.o(i.SYSCFG_BreakConfig), (16 bytes).
    Removing stm32f30x_syscfg.o(i.SYSCFG_BypassParityCheckDisable), (16 bytes).
    Removing stm32f30x_syscfg.o(i.SYSCFG_ClearFlag), (16 bytes).
    Removing stm32f30x_syscfg.o(i.SYSCFG_DMAChannelRemapConfig), (44 bytes).
    Removing stm32f30x_syscfg.o(i.SYSCFG_DeInit), (44 bytes).
    Removing stm32f30x_syscfg.o(i.SYSCFG_EncoderRemapConfig), (24 bytes).
    Removing stm32f30x_syscfg.o(i.SYSCFG_GetFlagStatus), (20 bytes).
    Removing stm32f30x_syscfg.o(i.SYSCFG_I2CFastModePlusConfig), (24 bytes).
    Removing stm32f30x_syscfg.o(i.SYSCFG_ITConfig), (24 bytes).
    Removing stm32f30x_syscfg.o(i.SYSCFG_MemoryRemapConfig), (20 bytes).
    Removing stm32f30x_syscfg.o(i.SYSCFG_SRAMWRPEnable), (16 bytes).
    Removing stm32f30x_syscfg.o(i.SYSCFG_TriggerRemapConfig), (44 bytes).
    Removing stm32f30x_syscfg.o(i.SYSCFG_USBInterruptLineRemapCmd), (12 bytes).
    Removing stm32f30x_tim.o(.rev16_text), (4 bytes).
    Removing stm32f30x_tim.o(.revsh_text), (4 bytes).
    Removing stm32f30x_tim.o(.rrx_text), (6 bytes).
    Removing stm32f30x_tim.o(i.TI1_Config), (40 bytes).
    Removing stm32f30x_tim.o(i.TI2_Config), (54 bytes).
    Removing stm32f30x_tim.o(i.TIM_BDTRConfig), (32 bytes).
    Removing stm32f30x_tim.o(i.TIM_BDTRStructInit), (18 bytes).
    Removing stm32f30x_tim.o(i.TIM_Break1Cmd), (20 bytes).
    Removing stm32f30x_tim.o(i.TIM_Break1Config), (20 bytes).
    Removing stm32f30x_tim.o(i.TIM_Break2Cmd), (20 bytes).
    Removing stm32f30x_tim.o(i.TIM_Break2Config), (20 bytes).
    Removing stm32f30x_tim.o(i.TIM_CCPreloadControl), (22 bytes).
    Removing stm32f30x_tim.o(i.TIM_CCxCmd), (22 bytes).
    Removing stm32f30x_tim.o(i.TIM_CCxNCmd), (22 bytes).
    Removing stm32f30x_tim.o(i.TIM_ClearFlag), (8 bytes).
    Removing stm32f30x_tim.o(i.TIM_ClearOC1Ref), (12 bytes).
    Removing stm32f30x_tim.o(i.TIM_ClearOC2Ref), (14 bytes).
    Removing stm32f30x_tim.o(i.TIM_ClearOC3Ref), (12 bytes).
    Removing stm32f30x_tim.o(i.TIM_ClearOC4Ref), (14 bytes).
    Removing stm32f30x_tim.o(i.TIM_ClearOC5Ref), (12 bytes).
    Removing stm32f30x_tim.o(i.TIM_ClearOC6Ref), (14 bytes).
    Removing stm32f30x_tim.o(i.TIM_CounterModeConfig), (12 bytes).
    Removing stm32f30x_tim.o(i.TIM_DMACmd), (20 bytes).
    Removing stm32f30x_tim.o(i.TIM_DMAConfig), (8 bytes).
    Removing stm32f30x_tim.o(i.TIM_ETRClockMode1Config), (20 bytes).
    Removing stm32f30x_tim.o(i.TIM_ETRClockMode2Config), (18 bytes).
    Removing stm32f30x_tim.o(i.TIM_ETRConfig), (24 bytes).
    Removing stm32f30x_tim.o(i.TIM_EncoderInterfaceConfig), (56 bytes).
    Removing stm32f30x_tim.o(i.TIM_ForcedOC1Config), (16 bytes).
    Removing stm32f30x_tim.o(i.TIM_ForcedOC2Config), (20 bytes).
    Removing stm32f30x_tim.o(i.TIM_ForcedOC3Config), (12 bytes).
    Removing stm32f30x_tim.o(i.TIM_ForcedOC4Config), (14 bytes).
    Removing stm32f30x_tim.o(i.TIM_ForcedOC5Config), (12 bytes).
    Removing stm32f30x_tim.o(i.TIM_ForcedOC6Config), (14 bytes).
    Removing stm32f30x_tim.o(i.TIM_GenerateEvent), (4 bytes).
    Removing stm32f30x_tim.o(i.TIM_GetCapture1), (4 bytes).
    Removing stm32f30x_tim.o(i.TIM_GetCapture2), (4 bytes).
    Removing stm32f30x_tim.o(i.TIM_GetCapture3), (4 bytes).
    Removing stm32f30x_tim.o(i.TIM_GetCapture4), (4 bytes).
    Removing stm32f30x_tim.o(i.TIM_GetCounter), (4 bytes).
    Removing stm32f30x_tim.o(i.TIM_GetFlagStatus), (14 bytes).
    Removing stm32f30x_tim.o(i.TIM_GetPrescaler), (4 bytes).
    Removing stm32f30x_tim.o(i.TIM_ICInit), (188 bytes).
    Removing stm32f30x_tim.o(i.TIM_ICStructInit), (16 bytes).
    Removing stm32f30x_tim.o(i.TIM_ITRxExternalClockConfig), (18 bytes).
    Removing stm32f30x_tim.o(i.TIM_InternalClockConfig), (12 bytes).
    Removing stm32f30x_tim.o(i.TIM_OC1FastConfig), (12 bytes).
    Removing stm32f30x_tim.o(i.TIM_OC1NPolarityConfig), (12 bytes).
    Removing stm32f30x_tim.o(i.TIM_OC1PolarityConfig), (12 bytes).
    Removing stm32f30x_tim.o(i.TIM_OC2FastConfig), (14 bytes).
    Removing stm32f30x_tim.o(i.TIM_OC2Init), (120 bytes).
    Removing stm32f30x_tim.o(i.TIM_OC2NPolarityConfig), (14 bytes).
    Removing stm32f30x_tim.o(i.TIM_OC2PolarityConfig), (14 bytes).
    Removing stm32f30x_tim.o(i.TIM_OC2PreloadConfig), (14 bytes).
    Removing stm32f30x_tim.o(i.TIM_OC3FastConfig), (12 bytes).
    Removing stm32f30x_tim.o(i.TIM_OC3Init), (108 bytes).
    Removing stm32f30x_tim.o(i.TIM_OC3NPolarityConfig), (14 bytes).
    Removing stm32f30x_tim.o(i.TIM_OC3PolarityConfig), (14 bytes).
    Removing stm32f30x_tim.o(i.TIM_OC3PreloadConfig), (12 bytes).
    Removing stm32f30x_tim.o(i.TIM_OC4FastConfig), (14 bytes).
    Removing stm32f30x_tim.o(i.TIM_OC4Init), (84 bytes).
    Removing stm32f30x_tim.o(i.TIM_OC4PolarityConfig), (14 bytes).
    Removing stm32f30x_tim.o(i.TIM_OC4PreloadConfig), (14 bytes).
    Removing stm32f30x_tim.o(i.TIM_OC5Init), (84 bytes).
    Removing stm32f30x_tim.o(i.TIM_OC5PolarityConfig), (14 bytes).
    Removing stm32f30x_tim.o(i.TIM_OC5PreloadConfig), (12 bytes).
    Removing stm32f30x_tim.o(i.TIM_OC6Init), (80 bytes).
    Removing stm32f30x_tim.o(i.TIM_OC6PolarityConfig), (14 bytes).
    Removing stm32f30x_tim.o(i.TIM_OC6PreloadConfig), (14 bytes).
    Removing stm32f30x_tim.o(i.TIM_OCStructInit), (20 bytes).
    Removing stm32f30x_tim.o(i.TIM_PWMIConfig), (108 bytes).
    Removing stm32f30x_tim.o(i.TIM_PrescalerConfig), (6 bytes).
    Removing stm32f30x_tim.o(i.TIM_RemapConfig), (6 bytes).
    Removing stm32f30x_tim.o(i.TIM_SelectCCDMA), (22 bytes).
    Removing stm32f30x_tim.o(i.TIM_SelectCOM), (22 bytes).
    Removing stm32f30x_tim.o(i.TIM_SelectGC5C1), (20 bytes).
    Removing stm32f30x_tim.o(i.TIM_SelectGC5C2), (20 bytes).
    Removing stm32f30x_tim.o(i.TIM_SelectGC5C3), (20 bytes).
    Removing stm32f30x_tim.o(i.TIM_SelectHallSensor), (22 bytes).
    Removing stm32f30x_tim.o(i.TIM_SelectInputTrigger), (14 bytes).
    Removing stm32f30x_tim.o(i.TIM_SelectMasterSlaveMode), (18 bytes).
    Removing stm32f30x_tim.o(i.TIM_SelectOCREFClear), (18 bytes).
    Removing stm32f30x_tim.o(i.TIM_SelectOCxM), (76 bytes).
    Removing stm32f30x_tim.o(i.TIM_SelectOnePulseMode), (16 bytes).
    Removing stm32f30x_tim.o(i.TIM_SelectOutputTrigger), (18 bytes).
    Removing stm32f30x_tim.o(i.TIM_SelectOutputTrigger2), (16 bytes).
    Removing stm32f30x_tim.o(i.TIM_SelectSlaveMode), (20 bytes).
    Removing stm32f30x_tim.o(i.TIM_SetAutoreload), (4 bytes).
    Removing stm32f30x_tim.o(i.TIM_SetClockDivision), (16 bytes).
    Removing stm32f30x_tim.o(i.TIM_SetCompare1), (4 bytes).
    Removing stm32f30x_tim.o(i.TIM_SetCompare2), (4 bytes).
    Removing stm32f30x_tim.o(i.TIM_SetCompare3), (4 bytes).
    Removing stm32f30x_tim.o(i.TIM_SetCompare4), (4 bytes).
    Removing stm32f30x_tim.o(i.TIM_SetCompare5), (4 bytes).
    Removing stm32f30x_tim.o(i.TIM_SetCompare6), (4 bytes).
    Removing stm32f30x_tim.o(i.TIM_SetCounter), (4 bytes).
    Removing stm32f30x_tim.o(i.TIM_SetIC1Prescaler), (16 bytes).
    Removing stm32f30x_tim.o(i.TIM_SetIC2Prescaler), (18 bytes).
    Removing stm32f30x_tim.o(i.TIM_SetIC3Prescaler), (18 bytes).
    Removing stm32f30x_tim.o(i.TIM_SetIC4Prescaler), (26 bytes).
    Removing stm32f30x_tim.o(i.TIM_TIxExternalClockConfig), (46 bytes).
    Removing stm32f30x_tim.o(i.TIM_TimeBaseStructInit), (18 bytes).
    Removing stm32f30x_tim.o(i.TIM_UIFRemap), (20 bytes).
    Removing stm32f30x_tim.o(i.TIM_UpdateDisableConfig), (20 bytes).
    Removing stm32f30x_usart.o(.rev16_text), (4 bytes).
    Removing stm32f30x_usart.o(.revsh_text), (4 bytes).
    Removing stm32f30x_usart.o(.rrx_text), (6 bytes).
    Removing stm32f30x_usart.o(i.USART_AddressDetectionConfig), (16 bytes).
    Removing stm32f30x_usart.o(i.USART_AutoBaudRateCmd), (20 bytes).
    Removing stm32f30x_usart.o(i.USART_AutoBaudRateConfig), (16 bytes).
    Removing stm32f30x_usart.o(i.USART_ClearFlag), (4 bytes).
    Removing stm32f30x_usart.o(i.USART_ClearITPendingBit), (10 bytes).
    Removing stm32f30x_usart.o(i.USART_ClockInit), (28 bytes).
    Removing stm32f30x_usart.o(i.USART_ClockStructInit), (12 bytes).
    Removing stm32f30x_usart.o(i.USART_DECmd), (20 bytes).
    Removing stm32f30x_usart.o(i.USART_DEPolarityConfig), (16 bytes).
    Removing stm32f30x_usart.o(i.USART_DMACmd), (16 bytes).
    Removing stm32f30x_usart.o(i.USART_DMAReceptionErrorConfig), (16 bytes).
    Removing stm32f30x_usart.o(i.USART_DataInvCmd), (20 bytes).
    Removing stm32f30x_usart.o(i.USART_DirectionModeCmd), (16 bytes).
    Removing stm32f30x_usart.o(i.USART_HalfDuplexCmd), (20 bytes).
    Removing stm32f30x_usart.o(i.USART_InvPinCmd), (16 bytes).
    Removing stm32f30x_usart.o(i.USART_IrDACmd), (20 bytes).
    Removing stm32f30x_usart.o(i.USART_IrDAConfig), (16 bytes).
    Removing stm32f30x_usart.o(i.USART_LINBreakDetectLengthConfig), (16 bytes).
    Removing stm32f30x_usart.o(i.USART_LINCmd), (20 bytes).
    Removing stm32f30x_usart.o(i.USART_MSBFirstCmd), (20 bytes).
    Removing stm32f30x_usart.o(i.USART_MuteModeCmd), (20 bytes).
    Removing stm32f30x_usart.o(i.USART_MuteModeWakeUpConfig), (16 bytes).
    Removing stm32f30x_usart.o(i.USART_OneBitMethodCmd), (20 bytes).
    Removing stm32f30x_usart.o(i.USART_OverSampling8Cmd), (20 bytes).
    Removing stm32f30x_usart.o(i.USART_OverrunDetectionConfig), (16 bytes).
    Removing stm32f30x_usart.o(i.USART_ReceiverTimeOutCmd), (20 bytes).
    Removing stm32f30x_usart.o(i.USART_RequestCmd), (16 bytes).
    Removing stm32f30x_usart.o(i.USART_STOPModeCmd), (20 bytes).
    Removing stm32f30x_usart.o(i.USART_SWAPPinCmd), (20 bytes).
    Removing stm32f30x_usart.o(i.USART_SetAddress), (18 bytes).
    Removing stm32f30x_usart.o(i.USART_SetAutoRetryCount), (18 bytes).
    Removing stm32f30x_usart.o(i.USART_SetBlockLength), (18 bytes).
    Removing stm32f30x_usart.o(i.USART_SetDEAssertionTime), (18 bytes).
    Removing stm32f30x_usart.o(i.USART_SetDEDeassertionTime), (18 bytes).
    Removing stm32f30x_usart.o(i.USART_SetGuardTime), (16 bytes).
    Removing stm32f30x_usart.o(i.USART_SetPrescaler), (16 bytes).
    Removing stm32f30x_usart.o(i.USART_SetReceiverTimeOut), (16 bytes).
    Removing stm32f30x_usart.o(i.USART_SmartCardCmd), (20 bytes).
    Removing stm32f30x_usart.o(i.USART_SmartCardNACKCmd), (20 bytes).
    Removing stm32f30x_usart.o(i.USART_StopModeWakeUpSourceConfig), (16 bytes).
    Removing stm32f30x_wwdg.o(.rev16_text), (4 bytes).
    Removing stm32f30x_wwdg.o(.revsh_text), (4 bytes).
    Removing stm32f30x_wwdg.o(.rrx_text), (6 bytes).
    Removing stm32f30x_wwdg.o(i.WWDG_ClearFlag), (12 bytes).
    Removing stm32f30x_wwdg.o(i.WWDG_DeInit), (24 bytes).
    Removing stm32f30x_wwdg.o(i.WWDG_Enable), (16 bytes).
    Removing stm32f30x_wwdg.o(i.WWDG_EnableIT), (16 bytes).
    Removing stm32f30x_wwdg.o(i.WWDG_GetFlagStatus), (20 bytes).
    Removing stm32f30x_wwdg.o(i.WWDG_SetCounter), (16 bytes).
    Removing stm32f30x_wwdg.o(i.WWDG_SetPrescaler), (20 bytes).
    Removing stm32f30x_wwdg.o(i.WWDG_SetWindowValue), (28 bytes).
    Removing rtx_conf_cm.o(.rev16_text), (4 bytes).
    Removing rtx_conf_cm.o(.revsh_text), (4 bytes).
    Removing rtx_conf_cm.o(.rrx_text), (6 bytes).
    Removing rtx_conf_cm.o(.constdata), (4 bytes).
    Removing rtx_conf_cm.o(.data), (4 bytes).
    Removing startup_stm32f302xc.o(HEAP), (512 bytes).
    Removing system_stm32f3xx.o(.rev16_text), (4 bytes).
    Removing system_stm32f3xx.o(.revsh_text), (4 bytes).
    Removing system_stm32f3xx.o(.rrx_text), (6 bytes).
    Removing system_stm32f3xx.o(i.SystemCoreClockUpdate), (108 bytes).
    Removing system_stm32f3xx.o(.data), (20 bytes).
    Removing rt_cmsis.o(.rev16_text), (4 bytes).
    Removing rt_cmsis.o(.revsh_text), (4 bytes).
    Removing rt_cmsis.o(.rrx_text), (6 bytes).
    Removing rt_cmsis.o(i.isrSignalSet), (36 bytes).
    Removing rt_cmsis.o(i.osKernelRunning), (36 bytes).
    Removing rt_cmsis.o(i.osMailCAlloc), (48 bytes).
    Removing rt_cmsis.o(i.osMutexCreate), (44 bytes).
    Removing rt_cmsis.o(i.osMutexDelete), (24 bytes).
    Removing rt_cmsis.o(i.osMutexRelease), (24 bytes).
    Removing rt_cmsis.o(i.osMutexWait), (24 bytes).
    Removing rt_cmsis.o(i.osPoolAlloc), (32 bytes).
    Removing rt_cmsis.o(i.osPoolCAlloc), (52 bytes).
    Removing rt_cmsis.o(i.osPoolCreate), (44 bytes).
    Removing rt_cmsis.o(i.osPoolFree), (32 bytes).
    Removing rt_cmsis.o(i.osSemaphoreDelete), (24 bytes).
    Removing rt_cmsis.o(i.osSignalClear), (24 bytes).
    Removing rt_cmsis.o(i.osSignalSet), (24 bytes).
    Removing rt_cmsis.o(i.osSignalWait), (24 bytes).
    Removing rt_cmsis.o(i.osThreadGetId), (24 bytes).
    Removing rt_cmsis.o(i.osThreadGetPriority), (24 bytes).
    Removing rt_cmsis.o(i.osThreadSetPriority), (24 bytes).
    Removing rt_cmsis.o(i.osThreadTerminate), (24 bytes).
    Removing rt_cmsis.o(i.osTimerDelete), (24 bytes).
    Removing rt_cmsis.o(i.osTimerStop), (24 bytes).
    Removing rt_cmsis.o(i.osWait), (4 bytes).
    Removing rt_cmsis.o(i.os_resume), (12 bytes).
    Removing rt_cmsis.o(i.os_suspend), (12 bytes).
    Removing rt_cmsis.o(i.rt_clr_box), (24 bytes).
    Removing rt_cmsis.o(i.svcKernelRunning), (12 bytes).
    Removing rt_cmsis.o(i.svcMutexCreate), (28 bytes).
    Removing rt_cmsis.o(i.svcMutexDelete), (26 bytes).
    Removing rt_cmsis.o(i.svcMutexRelease), (34 bytes).
    Removing rt_cmsis.o(i.svcMutexWait), (58 bytes).
    Removing rt_cmsis.o(i.svcPoolCreate), (40 bytes).
    Removing rt_cmsis.o(i.svcSemaphoreDelete), (26 bytes).
    Removing rt_cmsis.o(i.svcSignalClear), (36 bytes).
    Removing rt_cmsis.o(i.svcSignalSet), (36 bytes).
    Removing rt_cmsis.o(i.svcSignalWait), (84 bytes).
    Removing rt_cmsis.o(i.svcThreadGetPriority), (18 bytes).
    Removing rt_cmsis.o(i.svcThreadSetPriority), (46 bytes).
    Removing rt_cmsis.o(i.svcTimerDelete), (40 bytes).
    Removing rt_cmsis.o(i.svcTimerStop), (36 bytes).
    Removing rt_cmsis.o(i.sysPoolAlloc), (10 bytes).
    Removing rt_cmsis.o(i.sysPoolFree), (20 bytes).
    Removing rt_cmsis.o(i.sysUserTimerUpdate), (48 bytes).
    Removing rt_cmsis.o(i.sysUserTimerWakeupTime), (20 bytes).
    Removing rt_system.o(.emb_text), (0 bytes).
    Removing rt_system.o(i.rt_resume), (136 bytes).
    Removing rt_system.o(i.rt_suspend), (36 bytes).
    Removing rt_system.o(i.rt_tsk_lock), (80 bytes).
    Removing rt_system.o(i.rt_tsk_unlock), (80 bytes).
    Removing rt_event.o(i.isr_evt_set), (40 bytes).
    Removing rt_event.o(i.rt_evt_clr), (28 bytes).
    Removing rt_event.o(i.rt_evt_get), (12 bytes).
    Removing rt_event.o(i.rt_evt_set), (92 bytes).
    Removing rt_event.o(i.rt_evt_wait), (60 bytes).
    Removing rt_semaphore.o(i.rt_sem_delete), (92 bytes).
    Removing rt_time.o(i.rt_itv_set), (24 bytes).
    Removing rt_time.o(i.rt_itv_wait), (40 bytes).
    Removing rt_time.o(i.rt_time_get), (12 bytes).
    Removing rt_mutex.o(i.rt_mut_delete), (176 bytes).
    Removing rt_mutex.o(i.rt_mut_init), (16 bytes).
    Removing rt_mutex.o(i.rt_mut_release), (216 bytes).
    Removing rt_mutex.o(i.rt_mut_wait), (120 bytes).
    Removing rt_membox.o(i._calloc_box), (30 bytes).
    Removing dfixul.o(.text), (48 bytes).
    Removing cdrcmple.o(.text), (48 bytes).

813 unused section(s) (total 25147 bytes) removed from the image.

==============================================================================

Image Symbol Table

    Local Symbols

    Symbol Name                              Value     Ov Type        Size  Object(Section)

    ../clib/../cmprslib/zerorunl2.c          0x00000000   Number         0  __dczerorl2.o ABSOLUTE
    ../clib/microlib/ctype/ctype.c           0x00000000   Number         0  ctype_c.o ABSOLUTE
    ../clib/microlib/ctype/ctype.c           0x00000000   Number         0  isspace_c.o ABSOLUTE
    ../clib/microlib/ctype/tolower.c         0x00000000   Number         0  tolower.o ABSOLUTE
    ../clib/microlib/ctype/toupper.c         0x00000000   Number         0  toupper.o ABSOLUTE
    ../clib/microlib/division.c              0x00000000   Number         0  uidiv.o ABSOLUTE
    ../clib/microlib/division.c              0x00000000   Number         0  uldiv.o ABSOLUTE
    ../clib/microlib/errno.c                 0x00000000   Number         0  errno.o ABSOLUTE
    ../clib/microlib/init/entry.s            0x00000000   Number         0  entry7a.o ABSOLUTE
    ../clib/microlib/init/entry.s            0x00000000   Number         0  entry10a.o ABSOLUTE
    ../clib/microlib/init/entry.s            0x00000000   Number         0  entry10b.o ABSOLUTE
    ../clib/microlib/init/entry.s            0x00000000   Number         0  entry11a.o ABSOLUTE
    ../clib/microlib/init/entry.s            0x00000000   Number         0  entry.o ABSOLUTE
    ../clib/microlib/init/entry.s            0x00000000   Number         0  entry12a.o ABSOLUTE
    ../clib/microlib/init/entry.s            0x00000000   Number         0  entry12b.o ABSOLUTE
    ../clib/microlib/init/entry.s            0x00000000   Number         0  entry11b.o ABSOLUTE
    ../clib/microlib/init/entry.s            0x00000000   Number         0  entry7b.o ABSOLUTE
    ../clib/microlib/init/entry.s            0x00000000   Number         0  entry5.o ABSOLUTE
    ../clib/microlib/init/entry.s            0x00000000   Number         0  entry8a.o ABSOLUTE
    ../clib/microlib/init/entry.s            0x00000000   Number         0  entry8b.o ABSOLUTE
    ../clib/microlib/init/entry.s            0x00000000   Number         0  entry2.o ABSOLUTE
    ../clib/microlib/longlong.c              0x00000000   Number         0  llushr.o ABSOLUTE
    ../clib/microlib/longlong.c              0x00000000   Number         0  llsshr.o ABSOLUTE
    ../clib/microlib/longlong.c              0x00000000   Number         0  llshl.o ABSOLUTE
    ../clib/microlib/printf/printf.c         0x00000000   Number         0  printf4.o ABSOLUTE
    ../clib/microlib/printf/printf.c         0x00000000   Number         0  printf3.o ABSOLUTE
    ../clib/microlib/printf/printf.c         0x00000000   Number         0  printf2.o ABSOLUTE
    ../clib/microlib/printf/printf.c         0x00000000   Number         0  printf1.o ABSOLUTE
    ../clib/microlib/printf/printf.c         0x00000000   Number         0  printf0.o ABSOLUTE
    ../clib/microlib/printf/printf.c         0x00000000   Number         0  printfb.o ABSOLUTE
    ../clib/microlib/printf/printf.c         0x00000000   Number         0  printf5.o ABSOLUTE
    ../clib/microlib/printf/printf.c         0x00000000   Number         0  printf8.o ABSOLUTE
    ../clib/microlib/printf/printf.c         0x00000000   Number         0  printf7.o ABSOLUTE
    ../clib/microlib/printf/printf.c         0x00000000   Number         0  printfa.o ABSOLUTE
    ../clib/microlib/printf/printf.c         0x00000000   Number         0  printf6.o ABSOLUTE
    ../clib/microlib/printf/stubs.s          0x00000000   Number         0  stubs.o ABSOLUTE
    ../clib/microlib/stdio/fputc.c           0x00000000   Number         0  fputc.o ABSOLUTE
    ../clib/microlib/stdio/semi.s            0x00000000   Number         0  semi.o ABSOLUTE
    ../clib/microlib/stdio/streams.c         0x00000000   Number         0  stdout.o ABSOLUTE
    ../clib/microlib/string/memcpy.c         0x00000000   Number         0  memcpya.o ABSOLUTE
    ../clib/microlib/string/memcpy.c         0x00000000   Number         0  memcpyb.o ABSOLUTE
    ../clib/microlib/string/memset.c         0x00000000   Number         0  memseta.o ABSOLUTE
    ../clib/microlib/string/strlen.c         0x00000000   Number         0  strlen.o ABSOLUTE
    ../clib/microlib/string/strncmp.c        0x00000000   Number         0  strncmp.o ABSOLUTE
    ../clib/microlib/string/strstr.c         0x00000000   Number         0  strstr.o ABSOLUTE
    ../clib/microlib/stubs.s                 0x00000000   Number         0  iusefp.o ABSOLUTE
    ../clib/microlib/stubs.s                 0x00000000   Number         0  iusesemip.o ABSOLUTE
    ../clib/scanf.c                          0x00000000   Number         0  _scanf.o ABSOLUTE
    ../clib/scanf.c                          0x00000000   Number         0  strtod.o ABSOLUTE
    ../clib/scanf.c                          0x00000000   Number         0  _sgetc.o ABSOLUTE
    ../clib/scanf.c                          0x00000000   Number         0  scanf_char.o ABSOLUTE
    ../clib/scanf.c                          0x00000000   Number         0  __0sscanf.o ABSOLUTE
    ../clib/scanf.c                          0x00000000   Number         0  _chval.o ABSOLUTE
    ../clib/scanf.c                          0x00000000   Number         0  _scanf_int.o ABSOLUTE
    ../clib/scanf.c                          0x00000000   Number         0  scanf_fp.o ABSOLUTE
    ../fplib/microlib/d2f.c                  0x00000000   Number         0  d2f.o ABSOLUTE
    ../fplib/microlib/fpadd.c                0x00000000   Number         0  dadd.o ABSOLUTE
    ../fplib/microlib/fpdiv.c                0x00000000   Number         0  ddiv.o ABSOLUTE
    ../fplib/microlib/fpepilogue.c           0x00000000   Number         0  fepilogue.o ABSOLUTE
    ../fplib/microlib/fpepilogue.c           0x00000000   Number         0  depilogue.o ABSOLUTE
    ../fplib/microlib/fpfix.c                0x00000000   Number         0  dfixul.o ABSOLUTE
    ../fplib/microlib/fpfix.c                0x00000000   Number         0  dfixui.o ABSOLUTE
    ../fplib/microlib/fpflt.c                0x00000000   Number         0  dfltul.o ABSOLUTE
    ../fplib/microlib/fpflt.c                0x00000000   Number         0  dflti.o ABSOLUTE
    ../fplib/microlib/fpflt.c                0x00000000   Number         0  dfltui.o ABSOLUTE
    ../fplib/microlib/fpmul.c                0x00000000   Number         0  dmul.o ABSOLUTE
    ../mathlib/atof.c                        0x00000000   Number         0  atof.o ABSOLUTE
    ..\HAL_CM.c                              0x00000000   Number         0  hal_cm.o ABSOLUTE
    ..\\rt_CMSIS.c                           0x00000000   Number         0  rt_cmsis.o ABSOLUTE
    ..\\rt_System.c                          0x00000000   Number         0  rt_system.o ABSOLUTE
    ..\rt_CMSIS.c                            0x00000000   Number         0  rt_cmsis.o ABSOLUTE
    ..\rt_Event.c                            0x00000000   Number         0  rt_event.o ABSOLUTE
    ..\rt_List.c                             0x00000000   Number         0  rt_list.o ABSOLUTE
    ..\rt_Mailbox.c                          0x00000000   Number         0  rt_mailbox.o ABSOLUTE
    ..\rt_MemBox.c                           0x00000000   Number         0  rt_membox.o ABSOLUTE
    ..\rt_Memory.c                           0x00000000   Number         0  rt_memory.o ABSOLUTE
    ..\rt_Mutex.c                            0x00000000   Number         0  rt_mutex.o ABSOLUTE
    ..\rt_Robin.c                            0x00000000   Number         0  rt_robin.o ABSOLUTE
    ..\rt_Semaphore.c                        0x00000000   Number         0  rt_semaphore.o ABSOLUTE
    ..\rt_System.c                           0x00000000   Number         0  rt_system.o ABSOLUTE
    ..\rt_Task.c                             0x00000000   Number         0  rt_task.o ABSOLUTE
    ..\rt_Time.c                             0x00000000   Number         0  rt_time.o ABSOLUTE
    Drivers\STM32F30x_StdPeriph_Driver\src\stm32f30x_adc.c 0x00000000   Number         0  stm32f30x_adc.o ABSOLUTE
    Drivers\STM32F30x_StdPeriph_Driver\src\stm32f30x_can.c 0x00000000   Number         0  stm32f30x_can.o ABSOLUTE
    Drivers\STM32F30x_StdPeriph_Driver\src\stm32f30x_comp.c 0x00000000   Number         0  stm32f30x_comp.o ABSOLUTE
    Drivers\STM32F30x_StdPeriph_Driver\src\stm32f30x_crc.c 0x00000000   Number         0  stm32f30x_crc.o ABSOLUTE
    Drivers\STM32F30x_StdPeriph_Driver\src\stm32f30x_dac.c 0x00000000   Number         0  stm32f30x_dac.o ABSOLUTE
    Drivers\STM32F30x_StdPeriph_Driver\src\stm32f30x_dbgmcu.c 0x00000000   Number         0  stm32f30x_dbgmcu.o ABSOLUTE
    Drivers\STM32F30x_StdPeriph_Driver\src\stm32f30x_dma.c 0x00000000   Number         0  stm32f30x_dma.o ABSOLUTE
    Drivers\STM32F30x_StdPeriph_Driver\src\stm32f30x_exti.c 0x00000000   Number         0  stm32f30x_exti.o ABSOLUTE
    Drivers\STM32F30x_StdPeriph_Driver\src\stm32f30x_flash.c 0x00000000   Number         0  stm32f30x_flash.o ABSOLUTE
    Drivers\STM32F30x_StdPeriph_Driver\src\stm32f30x_fmc.c 0x00000000   Number         0  stm32f30x_fmc.o ABSOLUTE
    Drivers\STM32F30x_StdPeriph_Driver\src\stm32f30x_gpio.c 0x00000000   Number         0  stm32f30x_gpio.o ABSOLUTE
    Drivers\STM32F30x_StdPeriph_Driver\src\stm32f30x_hrtim.c 0x00000000   Number         0  stm32f30x_hrtim.o ABSOLUTE
    Drivers\STM32F30x_StdPeriph_Driver\src\stm32f30x_i2c.c 0x00000000   Number         0  stm32f30x_i2c.o ABSOLUTE
    Drivers\STM32F30x_StdPeriph_Driver\src\stm32f30x_iwdg.c 0x00000000   Number         0  stm32f30x_iwdg.o ABSOLUTE
    Drivers\STM32F30x_StdPeriph_Driver\src\stm32f30x_misc.c 0x00000000   Number         0  stm32f30x_misc.o ABSOLUTE
    Drivers\STM32F30x_StdPeriph_Driver\src\stm32f30x_opamp.c 0x00000000   Number         0  stm32f30x_opamp.o ABSOLUTE
    Drivers\STM32F30x_StdPeriph_Driver\src\stm32f30x_pwr.c 0x00000000   Number         0  stm32f30x_pwr.o ABSOLUTE
    Drivers\STM32F30x_StdPeriph_Driver\src\stm32f30x_rcc.c 0x00000000   Number         0  stm32f30x_rcc.o ABSOLUTE
    Drivers\STM32F30x_StdPeriph_Driver\src\stm32f30x_rtc.c 0x00000000   Number         0  stm32f30x_rtc.o ABSOLUTE
    Drivers\STM32F30x_StdPeriph_Driver\src\stm32f30x_spi.c 0x00000000   Number         0  stm32f30x_spi.o ABSOLUTE
    Drivers\STM32F30x_StdPeriph_Driver\src\stm32f30x_syscfg.c 0x00000000   Number         0  stm32f30x_syscfg.o ABSOLUTE
    Drivers\STM32F30x_StdPeriph_Driver\src\stm32f30x_tim.c 0x00000000   Number         0  stm32f30x_tim.o ABSOLUTE
    Drivers\STM32F30x_StdPeriph_Driver\src\stm32f30x_usart.c 0x00000000   Number         0  stm32f30x_usart.o ABSOLUTE
    Drivers\STM32F30x_StdPeriph_Driver\src\stm32f30x_wwdg.c 0x00000000   Number         0  stm32f30x_wwdg.o ABSOLUTE
    Drivers\\STM32F30x_StdPeriph_Driver\\src\\stm32f30x_adc.c 0x00000000   Number         0  stm32f30x_adc.o ABSOLUTE
    Drivers\\STM32F30x_StdPeriph_Driver\\src\\stm32f30x_can.c 0x00000000   Number         0  stm32f30x_can.o ABSOLUTE
    Drivers\\STM32F30x_StdPeriph_Driver\\src\\stm32f30x_comp.c 0x00000000   Number         0  stm32f30x_comp.o ABSOLUTE
    Drivers\\STM32F30x_StdPeriph_Driver\\src\\stm32f30x_crc.c 0x00000000   Number         0  stm32f30x_crc.o ABSOLUTE
    Drivers\\STM32F30x_StdPeriph_Driver\\src\\stm32f30x_dac.c 0x00000000   Number         0  stm32f30x_dac.o ABSOLUTE
    Drivers\\STM32F30x_StdPeriph_Driver\\src\\stm32f30x_dbgmcu.c 0x00000000   Number         0  stm32f30x_dbgmcu.o ABSOLUTE
    Drivers\\STM32F30x_StdPeriph_Driver\\src\\stm32f30x_dma.c 0x00000000   Number         0  stm32f30x_dma.o ABSOLUTE
    Drivers\\STM32F30x_StdPeriph_Driver\\src\\stm32f30x_exti.c 0x00000000   Number         0  stm32f30x_exti.o ABSOLUTE
    Drivers\\STM32F30x_StdPeriph_Driver\\src\\stm32f30x_flash.c 0x00000000   Number         0  stm32f30x_flash.o ABSOLUTE
    Drivers\\STM32F30x_StdPeriph_Driver\\src\\stm32f30x_fmc.c 0x00000000   Number         0  stm32f30x_fmc.o ABSOLUTE
    Drivers\\STM32F30x_StdPeriph_Driver\\src\\stm32f30x_gpio.c 0x00000000   Number         0  stm32f30x_gpio.o ABSOLUTE
    Drivers\\STM32F30x_StdPeriph_Driver\\src\\stm32f30x_hrtim.c 0x00000000   Number         0  stm32f30x_hrtim.o ABSOLUTE
    Drivers\\STM32F30x_StdPeriph_Driver\\src\\stm32f30x_i2c.c 0x00000000   Number         0  stm32f30x_i2c.o ABSOLUTE
    Drivers\\STM32F30x_StdPeriph_Driver\\src\\stm32f30x_iwdg.c 0x00000000   Number         0  stm32f30x_iwdg.o ABSOLUTE
    Drivers\\STM32F30x_StdPeriph_Driver\\src\\stm32f30x_misc.c 0x00000000   Number         0  stm32f30x_misc.o ABSOLUTE
    Drivers\\STM32F30x_StdPeriph_Driver\\src\\stm32f30x_opamp.c 0x00000000   Number         0  stm32f30x_opamp.o ABSOLUTE
    Drivers\\STM32F30x_StdPeriph_Driver\\src\\stm32f30x_pwr.c 0x00000000   Number         0  stm32f30x_pwr.o ABSOLUTE
    Drivers\\STM32F30x_StdPeriph_Driver\\src\\stm32f30x_rcc.c 0x00000000   Number         0  stm32f30x_rcc.o ABSOLUTE
    Drivers\\STM32F30x_StdPeriph_Driver\\src\\stm32f30x_rtc.c 0x00000000   Number         0  stm32f30x_rtc.o ABSOLUTE
    Drivers\\STM32F30x_StdPeriph_Driver\\src\\stm32f30x_spi.c 0x00000000   Number         0  stm32f30x_spi.o ABSOLUTE
    Drivers\\STM32F30x_StdPeriph_Driver\\src\\stm32f30x_syscfg.c 0x00000000   Number         0  stm32f30x_syscfg.o ABSOLUTE
    Drivers\\STM32F30x_StdPeriph_Driver\\src\\stm32f30x_tim.c 0x00000000   Number         0  stm32f30x_tim.o ABSOLUTE
    Drivers\\STM32F30x_StdPeriph_Driver\\src\\stm32f30x_usart.c 0x00000000   Number         0  stm32f30x_usart.o ABSOLUTE
    Drivers\\STM32F30x_StdPeriph_Driver\\src\\stm32f30x_wwdg.c 0x00000000   Number         0  stm32f30x_wwdg.o ABSOLUTE
    HAL_CM4.c                                0x00000000   Number         0  hal_cm4.o ABSOLUTE
    HAL_CM4.c                                0x00000000   Number         0  hal_cm4.o ABSOLUTE
    RTE\CMSIS\RTX_Conf_CM.c                  0x00000000   Number         0  rtx_conf_cm.o ABSOLUTE
    RTE\Device\STM32F302RC\startup_stm32f302xc.s 0x00000000   Number         0  startup_stm32f302xc.o ABSOLUTE
    RTE\Device\STM32F302RC\system_stm32f3xx.c 0x00000000   Number         0  system_stm32f3xx.o ABSOLUTE
    RTE\\CMSIS\\RTX_Conf_CM.c                0x00000000   Number         0  rtx_conf_cm.o ABSOLUTE
    RTE\\Device\\STM32F302RC\\system_stm32f3xx.c 0x00000000   Number         0  system_stm32f3xx.o ABSOLUTE
    SVC_Table.s                              0x00000000   Number         0  svc_table.o ABSOLUTE
    cdcmple.s                                0x00000000   Number         0  cdcmple.o ABSOLUTE
    cdrcmple.s                               0x00000000   Number         0  cdrcmple.o ABSOLUTE
    dc.s                                     0x00000000   Number         0  dc.o ABSOLUTE
    handlers.s                               0x00000000   Number         0  handlers.o ABSOLUTE
    init.s                                   0x00000000   Number         0  init.o ABSOLUTE
    src\Serial.c                             0x00000000   Number         0  serial.o ABSOLUTE
    src\Thread.c                             0x00000000   Number         0  thread.o ABSOLUTE
    src\\Serial.c                            0x00000000   Number         0  serial.o ABSOLUTE
    src\\Thread.c                            0x00000000   Number         0  thread.o ABSOLUTE
    src\\canbus.c                            0x00000000   Number         0  canbus.o ABSOLUTE
    src\\digital.c                           0x00000000   Number         0  digital.o ABSOLUTE
    src\\flash.c                             0x00000000   Number         0  flash.o ABSOLUTE
    src\\interface.c                         0x00000000   Number         0  interface.o ABSOLUTE
    src\\main.c                              0x00000000   Number         0  main.o ABSOLUTE
    src\\power.c                             0x00000000   Number         0  power.o ABSOLUTE
    src\\stm32f30x_it.c                      0x00000000   Number         0  stm32f30x_it.o ABSOLUTE
    src\\utils.c                             0x00000000   Number         0  utils.o ABSOLUTE
    src\canbus.c                             0x00000000   Number         0  canbus.o ABSOLUTE
    src\digital.c                            0x00000000   Number         0  digital.o ABSOLUTE
    src\flash.c                              0x00000000   Number         0  flash.o ABSOLUTE
    src\interface.c                          0x00000000   Number         0  interface.o ABSOLUTE
    src\main.c                               0x00000000   Number         0  main.o ABSOLUTE
    src\power.c                              0x00000000   Number         0  power.o ABSOLUTE
    src\stm32f30x_it.c                       0x00000000   Number         0  stm32f30x_it.o ABSOLUTE
    src\utils.c                              0x00000000   Number         0  utils.o ABSOLUTE
    RESET                                    0x0800a000   Section      392  startup_stm32f302xc.o(RESET)
    .ARM.Collect$$$$00000000                 0x0800a188   Section        0  entry.o(.ARM.Collect$$$$00000000)
    .ARM.Collect$$$$00000001                 0x0800a188   Section        4  entry2.o(.ARM.Collect$$$$00000001)
    .ARM.Collect$$$$00000004                 0x0800a18c   Section        4  entry5.o(.ARM.Collect$$$$00000004)
    .ARM.Collect$$$$00000008                 0x0800a190   Section        0  entry7b.o(.ARM.Collect$$$$00000008)
    .ARM.Collect$$$$0000000A                 0x0800a190   Section        0  entry8b.o(.ARM.Collect$$$$0000000A)
    .ARM.Collect$$$$0000000E                 0x0800a190   Section        4  entry12b.o(.ARM.Collect$$$$0000000E)
    .ARM.Collect$$$$0000000F                 0x0800a194   Section        0  entry10a.o(.ARM.Collect$$$$0000000F)
    .ARM.Collect$$$$00000011                 0x0800a194   Section        0  entry11a.o(.ARM.Collect$$$$00000011)
    .ARM.Collect$$$$000000FF                 0x0800a194   Section        0  rtx_conf_cm.o(.ARM.Collect$$$$000000FF)
    .ARM.Collect$$$$00002712                 0x0800a1ac   Section        4  entry2.o(.ARM.Collect$$$$00002712)
    __lit__00000000                          0x0800a1ac   Data           4  entry2.o(.ARM.Collect$$$$00002712)
    .emb_text                                0x0800a1b0   Section      408  hal_cm4.o(.emb_text)
    $v0                                      0x0800a1b0   Number         0  hal_cm4.o(.emb_text)
    .text                                    0x0800a348   Section       36  startup_stm32f302xc.o(.text)
    $v0                                      0x0800a348   Number         0  startup_stm32f302xc.o(.text)
    .text                                    0x0800a36c   Section        0  uldiv.o(.text)
    .text                                    0x0800a3ce   Section        0  memcpya.o(.text)
    .text                                    0x0800a3f2   Section        0  memseta.o(.text)
    .text                                    0x0800a416   Section        0  strlen.o(.text)
    .text                                    0x0800a424   Section        0  strncmp.o(.text)
    .text                                    0x0800a444   Section        0  __0sscanf.o(.text)
    .text                                    0x0800a47c   Section        0  _scanf_int.o(.text)
    .text                                    0x0800a5c8   Section        0  dadd.o(.text)
    .text                                    0x0800a716   Section        0  dmul.o(.text)
    .text                                    0x0800a7fa   Section        0  ddiv.o(.text)
    .text                                    0x0800a8d8   Section        0  dflti.o(.text)
    .text                                    0x0800a8fa   Section        0  dfltui.o(.text)
    .text                                    0x0800a914   Section        0  dfixui.o(.text)
    .text                                    0x0800a948   Section       48  cdcmple.o(.text)
    .text                                    0x0800a978   Section        0  d2f.o(.text)
    .text                                    0x0800a9b0   Section        0  llshl.o(.text)
    .text                                    0x0800a9ce   Section        0  llushr.o(.text)
    .text                                    0x0800a9ee   Section        0  llsshr.o(.text)
    .text                                    0x0800aa12   Section        0  _chval.o(.text)
    .text                                    0x0800aa30   Section        0  scanf_char.o(.text)
    _scanf_char_input                        0x0800aa31   Thumb Code    12  scanf_char.o(.text)
    .text                                    0x0800aa58   Section        0  _sgetc.o(.text)
    .text                                    0x0800aa98   Section        0  strtod.o(.text)
    _local_sscanf                            0x0800aa99   Thumb Code    54  strtod.o(.text)
    .text                                    0x0800ab34   Section        0  iusefp.o(.text)
    .text                                    0x0800ab34   Section        0  fepilogue.o(.text)
    .text                                    0x0800aba2   Section        0  depilogue.o(.text)
    .text                                    0x0800ac5c   Section       36  init.o(.text)
    .text                                    0x0800ac80   Section        0  isspace_c.o(.text)
    .text                                    0x0800ac8c   Section        0  _scanf.o(.text)
    .text                                    0x0800afbc   Section        0  scanf_fp.o(.text)
    _fp_value                                0x0800afbd   Thumb Code   296  scanf_fp.o(.text)
    .text                                    0x0800b31c   Section        0  ctype_c.o(.text)
    .text                                    0x0800b344   Section        0  dfltul.o(.text)
    .text                                    0x0800b35c   Section        0  __dczerorl2.o(.text)
    SVC_TABLE                                0x0800b3b4   Section        4  svc_table.o(SVC_TABLE)
    i.ADC_Cmd                                0x0800b3b8   Section        0  stm32f30x_adc.o(i.ADC_Cmd)
    i.ADC_CommonInit                         0x0800b3cc   Section        0  stm32f30x_adc.o(i.ADC_CommonInit)
    i.ADC_DMACmd                             0x0800b420   Section        0  stm32f30x_adc.o(i.ADC_DMACmd)
    i.ADC_DMAConfig                          0x0800b434   Section        0  stm32f30x_adc.o(i.ADC_DMAConfig)
    i.ADC_GetCalibrationStatus               0x0800b444   Section        0  stm32f30x_adc.o(i.ADC_GetCalibrationStatus)
    i.ADC_GetFlagStatus                      0x0800b452   Section        0  stm32f30x_adc.o(i.ADC_GetFlagStatus)
    i.ADC_Init                               0x0800b460   Section        0  stm32f30x_adc.o(i.ADC_Init)
    i.ADC_Initialize                         0x0800b49c   Section        0  power.o(i.ADC_Initialize)
    ADC_Initialize                           0x0800b49d   Thumb Code   376  power.o(i.ADC_Initialize)
    i.ADC_ReadFuelValue                      0x0800b628   Section        0  power.o(i.ADC_ReadFuelValue)
    ADC_ReadFuelValue                        0x0800b629   Thumb Code   112  power.o(i.ADC_ReadFuelValue)
    i.ADC_RegularChannelConfig               0x0800b69c   Section        0  stm32f30x_adc.o(i.ADC_RegularChannelConfig)
    i.ADC_SelectCalibrationMode              0x0800b748   Section        0  stm32f30x_adc.o(i.ADC_SelectCalibrationMode)
    i.ADC_StartCalibration                   0x0800b758   Section        0  stm32f30x_adc.o(i.ADC_StartCalibration)
    i.ADC_StartConversion                    0x0800b762   Section        0  stm32f30x_adc.o(i.ADC_StartConversion)
    i.ADC_StructInit                         0x0800b76c   Section        0  stm32f30x_adc.o(i.ADC_StructInit)
    i.ADC_TempSensorCmd                      0x0800b782   Section        0  stm32f30x_adc.o(i.ADC_TempSensorCmd)
    i.ADC_VoltageRegulatorCmd                0x0800b79e   Section        0  stm32f30x_adc.o(i.ADC_VoltageRegulatorCmd)
    i.ADC_fillter_values                     0x0800b7bc   Section        0  power.o(i.ADC_fillter_values)
    ADC_fillter_values                       0x0800b7bd   Thumb Code    88  power.o(i.ADC_fillter_values)
    i.ArraySort                              0x0800b81c   Section        0  utils.o(i.ArraySort)
    i.BAT_fillter_values                     0x0800b84c   Section        0  power.o(i.BAT_fillter_values)
    BAT_fillter_values                       0x0800b84d   Thumb Code    88  power.o(i.BAT_fillter_values)
    i.BlinkIRLed                             0x0800b8ac   Section        0  power.o(i.BlinkIRLed)
    BlinkIRLed                               0x0800b8ad   Thumb Code   938  power.o(i.BlinkIRLed)
    i.BusFault_Handler                       0x0800bc58   Section        0  stm32f30x_it.o(i.BusFault_Handler)
    i.ButtonTimerHanler                      0x0800bc74   Section        0  interface.o(i.ButtonTimerHanler)
    ButtonTimerHanler                        0x0800bc75   Thumb Code   146  interface.o(i.ButtonTimerHanler)
    i.Buzz_Off                               0x0800bd1c   Section        0  interface.o(i.Buzz_Off)
    i.Buzz_On                                0x0800bd64   Section        0  interface.o(i.Buzz_On)
    i.CAN_ClearITPendingBit                  0x0800bd98   Section        0  stm32f30x_can.o(i.CAN_ClearITPendingBit)
    i.CAN_Config                             0x0800be10   Section        0  canbus.o(i.CAN_Config)
    CAN_Config                               0x0800be11   Thumb Code   246  canbus.o(i.CAN_Config)
    i.CAN_DeInit                             0x0800bf0c   Section        0  stm32f30x_can.o(i.CAN_DeInit)
    i.CAN_FilterInit                         0x0800bf24   Section        0  stm32f30x_can.o(i.CAN_FilterInit)
    i.CAN_GetITStatus                        0x0800bff0   Section        0  stm32f30x_can.o(i.CAN_GetITStatus)
    i.CAN_ITConfig                           0x0800c098   Section        0  stm32f30x_can.o(i.CAN_ITConfig)
    i.CAN_Init                               0x0800c0a8   Section        0  stm32f30x_can.o(i.CAN_Init)
    i.CAN_Receive                            0x0800c19a   Section        0  stm32f30x_can.o(i.CAN_Receive)
    i.CAN_StructInit                         0x0800c228   Section        0  stm32f30x_can.o(i.CAN_StructInit)
    i.CAN_Transmit                           0x0800c248   Section        0  stm32f30x_can.o(i.CAN_Transmit)
    i.CAN_service_init                       0x0800c308   Section        0  canbus.o(i.CAN_service_init)
    i.CLS2_check_mes                         0x0800c328   Section        0  utils.o(i.CLS2_check_mes)
    i.CRC32Software                          0x0800c374   Section        0  utils.o(i.CRC32Software)
    i.CRC_8BitsCompute                       0x0800c3a4   Section        0  utils.o(i.CRC_8BitsCompute)
    i.CheckITStatus                          0x0800c3c0   Section        0  stm32f30x_can.o(i.CheckITStatus)
    CheckITStatus                            0x0800c3c1   Thumb Code    12  stm32f30x_can.o(i.CheckITStatus)
    i.DMA1_Channel1_IRQHandler               0x0800c3cc   Section        0  power.o(i.DMA1_Channel1_IRQHandler)
    i.DMA_ClearITPendingBit                  0x0800c3e4   Section        0  stm32f30x_dma.o(i.DMA_ClearITPendingBit)
    i.DMA_Cmd                                0x0800c3fc   Section        0  stm32f30x_dma.o(i.DMA_Cmd)
    i.DMA_DeInit                             0x0800c414   Section        0  stm32f30x_dma.o(i.DMA_DeInit)
    i.DMA_GetITStatus                        0x0800c4f8   Section        0  stm32f30x_dma.o(i.DMA_GetITStatus)
    i.DMA_ITConfig                           0x0800c518   Section        0  stm32f30x_dma.o(i.DMA_ITConfig)
    i.DMA_Init                               0x0800c528   Section        0  stm32f30x_dma.o(i.DMA_Init)
    i.DebugMon_Handler                       0x0800c564   Section        0  stm32f30x_it.o(i.DebugMon_Handler)
    i.EC21_PW_Reset                          0x0800c580   Section        0  power.o(i.EC21_PW_Reset)
    i.EC21_data_parser                       0x0800c5d0   Section        0  serial.o(i.EC21_data_parser)
    EC21_data_parser                         0x0800c5d1   Thumb Code   164  serial.o(i.EC21_data_parser)
    i.ECUJ1587_Data_Request                  0x0800c688   Section        0  digital.o(i.ECUJ1587_Data_Request)
    i.EXTI0_IRQHandler                       0x0800c6e0   Section        0  power.o(i.EXTI0_IRQHandler)
    i.EXTI15_10_IRQHandler                   0x0800c754   Section        0  power.o(i.EXTI15_10_IRQHandler)
    i.EXTI_ClearITPendingBit                 0x0800c78c   Section        0  stm32f30x_exti.o(i.EXTI_ClearITPendingBit)
    i.EXTI_GetITStatus                       0x0800c7a8   Section        0  stm32f30x_exti.o(i.EXTI_GetITStatus)
    i.EXTI_Init                              0x0800c7cc   Section        0  stm32f30x_exti.o(i.EXTI_Init)
    i.FLASH_ClearFlag                        0x0800c8c4   Section        0  stm32f30x_flash.o(i.FLASH_ClearFlag)
    i.FLASH_ErasePage                        0x0800c8d0   Section        0  stm32f30x_flash.o(i.FLASH_ErasePage)
    i.FLASH_GetStatus                        0x0800c90c   Section        0  stm32f30x_flash.o(i.FLASH_GetStatus)
    i.FLASH_Lock                             0x0800c934   Section        0  stm32f30x_flash.o(i.FLASH_Lock)
    i.FLASH_ProgramWord                      0x0800c944   Section        0  stm32f30x_flash.o(i.FLASH_ProgramWord)
    i.FLASH_ReadBufData                      0x0800c990   Section        0  flash.o(i.FLASH_ReadBufData)
    i.FLASH_ReadData                         0x0800c9b0   Section        0  flash.o(i.FLASH_ReadData)
    i.FLASH_Unlock                           0x0800c9b4   Section        0  stm32f30x_flash.o(i.FLASH_Unlock)
    i.FLASH_WaitForLastOperation             0x0800c9d4   Section        0  stm32f30x_flash.o(i.FLASH_WaitForLastOperation)
    i.FLASH_WriteBufData                     0x0800c9f6   Section        0  flash.o(i.FLASH_WriteBufData)
    i.FLASH_WriteData                        0x0800ca58   Section        0  flash.o(i.FLASH_WriteData)
    i.FuelCyclesConfig                       0x0800cad0   Section        0  power.o(i.FuelCyclesConfig)
    FuelCyclesConfig                         0x0800cad1   Thumb Code    90  power.o(i.FuelCyclesConfig)
    i.FuelTimeoutHanler                      0x0800cb30   Section        0  digital.o(i.FuelTimeoutHanler)
    FuelTimeoutHanler                        0x0800cb31   Thumb Code    54  digital.o(i.FuelTimeoutHanler)
    i.Fuel_232_parse                         0x0800cb6c   Section        0  digital.o(i.Fuel_232_parse)
    Fuel_232_parse                           0x0800cb6d   Thumb Code   244  digital.o(i.Fuel_232_parse)
    i.GPIO_Init                              0x0800cc78   Section        0  stm32f30x_gpio.o(i.GPIO_Init)
    i.GPIO_Initialize                        0x0800ccec   Section        0  interface.o(i.GPIO_Initialize)
    GPIO_Initialize                          0x0800cced   Thumb Code   170  interface.o(i.GPIO_Initialize)
    i.GPIO_PinAFConfig                       0x0800cda0   Section        0  stm32f30x_gpio.o(i.GPIO_PinAFConfig)
    i.GPIO_ReadInputDataBit                  0x0800cdc0   Section        0  stm32f30x_gpio.o(i.GPIO_ReadInputDataBit)
    i.GPIO_ResetBits                         0x0800cdce   Section        0  stm32f30x_gpio.o(i.GPIO_ResetBits)
    i.GPIO_SetBits                           0x0800cdd2   Section        0  stm32f30x_gpio.o(i.GPIO_SetBits)
    i.HardFault_Handler                      0x0800cdd8   Section        0  stm32f30x_it.o(i.HardFault_Handler)
    i.IWDG_ReloadCounter                     0x0800ce14   Section        0  stm32f30x_iwdg.o(i.IWDG_ReloadCounter)
    i.InitPWM                                0x0800ce24   Section        0  power.o(i.InitPWM)
    InitPWM                                  0x0800ce25   Thumb Code   174  power.o(i.InitPWM)
    i.InitVS1838B                            0x0800ced4   Section        0  power.o(i.InitVS1838B)
    InitVS1838B                              0x0800ced5   Thumb Code   236  power.o(i.InitVS1838B)
    i.Init_Thread                            0x0800cfc4   Section        0  thread.o(i.Init_Thread)
    i.Interface_Init                         0x0800cfe4   Section        0  interface.o(i.Interface_Init)
    i.J1587HandlerRequest                    0x0800d054   Section        0  digital.o(i.J1587HandlerRequest)
    i.J1587ParserPID                         0x0800d090   Section        0  digital.o(i.J1587ParserPID)
    i.J1939Handler                           0x0800d360   Section        0  canbus.o(i.J1939Handler)
    J1939Handler                             0x0800d361   Thumb Code   592  canbus.o(i.J1939Handler)
    i.LedAndBuzzerControl                    0x0800d5ec   Section        0  interface.o(i.LedAndBuzzerControl)
    LedAndBuzzerControl                      0x0800d5ed   Thumb Code   418  interface.o(i.LedAndBuzzerControl)
    i.Led_Off                                0x0800d7a4   Section        0  interface.o(i.Led_Off)
    Led_Off                                  0x0800d7a5   Thumb Code    30  interface.o(i.Led_Off)
    i.Led_On                                 0x0800d7cc   Section        0  interface.o(i.Led_On)
    Led_On                                   0x0800d7cd   Thumb Code    30  interface.o(i.Led_On)
    i.MemManage_Handler                      0x0800d7f4   Section        0  stm32f30x_it.o(i.MemManage_Handler)
    i.NMI_Handler                            0x0800d810   Section        0  stm32f30x_it.o(i.NMI_Handler)
    i.NVIC_Init                              0x0800d824   Section        0  stm32f30x_misc.o(i.NVIC_Init)
    i.ODBIIHandler                           0x0800d888   Section        0  canbus.o(i.ODBIIHandler)
    ODBIIHandler                             0x0800d889   Thumb Code   250  canbus.o(i.ODBIIHandler)
    i.PW_Control_init                        0x0800d990   Section        0  power.o(i.PW_Control_init)
    PW_Control_init                          0x0800d991   Thumb Code   168  power.o(i.PW_Control_init)
    i.Power_Init                             0x0800da40   Section        0  power.o(i.Power_Init)
    i.PrintError                             0x0800daf0   Section        0  serial.o(i.PrintError)
    i.RCC_ADCCLKConfig                       0x0800db1c   Section        0  stm32f30x_rcc.o(i.RCC_ADCCLKConfig)
    i.RCC_AHBPeriphClockCmd                  0x0800db3c   Section        0  stm32f30x_rcc.o(i.RCC_AHBPeriphClockCmd)
    i.RCC_APB1PeriphClockCmd                 0x0800db54   Section        0  stm32f30x_rcc.o(i.RCC_APB1PeriphClockCmd)
    i.RCC_APB1PeriphResetCmd                 0x0800db6c   Section        0  stm32f30x_rcc.o(i.RCC_APB1PeriphResetCmd)
    i.RCC_APB2PeriphClockCmd                 0x0800db84   Section        0  stm32f30x_rcc.o(i.RCC_APB2PeriphClockCmd)
    i.RCC_APB2PeriphResetCmd                 0x0800db9c   Section        0  stm32f30x_rcc.o(i.RCC_APB2PeriphResetCmd)
    i.RCC_GetClocksFreq                      0x0800dbb4   Section        0  stm32f30x_rcc.o(i.RCC_GetClocksFreq)
    i.SYSCFG_EXTILineConfig                  0x0800deb0   Section        0  stm32f30x_syscfg.o(i.SYSCFG_EXTILineConfig)
    i.SerialPushBuffer                       0x0800ded8   Section        0  serial.o(i.SerialPushBuffer)
    i.SerialPushBufferWithCS                 0x0800df0c   Section        0  serial.o(i.SerialPushBufferWithCS)
    i.SerialPushByte                         0x0800df2c   Section        0  serial.o(i.SerialPushByte)
    i.SerialPushStr                          0x0800df38   Section        0  serial.o(i.SerialPushStr)
    i.SerialUARTInit                         0x0800df9c   Section        0  serial.o(i.SerialUARTInit)
    i.Serial_Init                            0x0800e044   Section        0  serial.o(i.Serial_Init)
    i.Serial_Parse                           0x0800e0b0   Section        0  serial.o(i.Serial_Parse)
    i.SerialrxBufferPush                     0x0800e374   Section        0  serial.o(i.SerialrxBufferPush)
    SerialrxBufferPush                       0x0800e375   Thumb Code    26  serial.o(i.SerialrxBufferPush)
    i.SetECUClearData                        0x0800e398   Section        0  canbus.o(i.SetECUClearData)
    i.SetSysClock                            0x0800e3f8   Section        0  system_stm32f3xx.o(i.SetSysClock)
    SetSysClock                              0x0800e3f9   Thumb Code   140  system_stm32f3xx.o(i.SetSysClock)
    i.Set_Led_Status                         0x0800e48c   Section        0  interface.o(i.Set_Led_Status)
    i.StoreFaultCode                         0x0800e4ac   Section        0  canbus.o(i.StoreFaultCode)
    i.StoreFaultCodeJ1587                    0x0800e4f4   Section        0  digital.o(i.StoreFaultCodeJ1587)
    i.SystemInit                             0x0800e550   Section        0  system_stm32f3xx.o(i.SystemInit)
    i.TIM3_IRQHandler                        0x0800e5c0   Section        0  power.o(i.TIM3_IRQHandler)
    i.TIM4_IRQHandler                        0x0800e628   Section        0  interface.o(i.TIM4_IRQHandler)
    i.TIM_ARRPreloadConfig                   0x0800e654   Section        0  stm32f30x_tim.o(i.TIM_ARRPreloadConfig)
    i.TIM_ClearITPendingBit                  0x0800e668   Section        0  stm32f30x_tim.o(i.TIM_ClearITPendingBit)
    i.TIM_Cmd                                0x0800e670   Section        0  stm32f30x_tim.o(i.TIM_Cmd)
    i.TIM_CtrlPWMOutputs                     0x0800e684   Section        0  stm32f30x_tim.o(i.TIM_CtrlPWMOutputs)
    i.TIM_DeInit                             0x0800e698   Section        0  stm32f30x_tim.o(i.TIM_DeInit)
    i.TIM_GetITStatus                        0x0800e788   Section        0  stm32f30x_tim.o(i.TIM_GetITStatus)
    i.TIM_ITConfig                           0x0800e7a0   Section        0  stm32f30x_tim.o(i.TIM_ITConfig)
    i.TIM_OC1Init                            0x0800e7b4   Section        0  stm32f30x_tim.o(i.TIM_OC1Init)
    i.TIM_OC1PreloadConfig                   0x0800e83c   Section        0  stm32f30x_tim.o(i.TIM_OC1PreloadConfig)
    i.TIM_TimeBaseInit                       0x0800e848   Section        0  stm32f30x_tim.o(i.TIM_TimeBaseInit)
    i.TIM_UpdateRequestConfig                0x0800e8e8   Section        0  stm32f30x_tim.o(i.TIM_UpdateRequestConfig)
    i.UART4Init                              0x0800e8fc   Section        0  digital.o(i.UART4Init)
    i.UART4PushBuffer                        0x0800e994   Section        0  digital.o(i.UART4PushBuffer)
    i.UART4_IRQHandler                       0x0800e9bc   Section        0  digital.o(i.UART4_IRQHandler)
    i.UART_SendByte                          0x0800e9f8   Section        0  serial.o(i.UART_SendByte)
    i.USART1_IRQHandler                      0x0800ea48   Section        0  serial.o(i.USART1_IRQHandler)
    i.USART2Init                             0x0800ea84   Section        0  digital.o(i.USART2Init)
    i.USART2PushBuffer                       0x0800eb70   Section        0  digital.o(i.USART2PushBuffer)
    i.USART2_IRQHandler                      0x0800eb98   Section        0  digital.o(i.USART2_IRQHandler)
    i.USART_Cmd                              0x0800ebd4   Section        0  stm32f30x_usart.o(i.USART_Cmd)
    i.USART_DeInit                           0x0800ebe8   Section        0  stm32f30x_usart.o(i.USART_DeInit)
    i.USART_GetFlagStatus                    0x0800ec5c   Section        0  stm32f30x_usart.o(i.USART_GetFlagStatus)
    i.USART_GetITStatus                      0x0800ec6a   Section        0  stm32f30x_usart.o(i.USART_GetITStatus)
    i.USART_ITConfig                         0x0800eca4   Section        0  stm32f30x_usart.o(i.USART_ITConfig)
    i.USART_Init                             0x0800eccc   Section        0  stm32f30x_usart.o(i.USART_Init)
    i.USART_ReceiveData                      0x0800ed80   Section        0  stm32f30x_usart.o(i.USART_ReceiveData)
    i.USART_SendData                         0x0800ed88   Section        0  stm32f30x_usart.o(i.USART_SendData)
    i.USART_StructInit                       0x0800ed90   Section        0  stm32f30x_usart.o(i.USART_StructInit)
    i.USB_LP_CAN1_RX0_IRQHandler             0x0800eda8   Section        0  canbus.o(i.USB_LP_CAN1_RX0_IRQHandler)
    i.UsageFault_Handler                     0x0800edf0   Section        0  stm32f30x_it.o(i.UsageFault_Handler)
    i.UserTimerHanler                        0x0800ee0c   Section        0  interface.o(i.UserTimerHanler)
    UserTimerHanler                          0x0800ee0d   Thumb Code     4  interface.o(i.UserTimerHanler)
    i.UserTimer_Init                         0x0800ee10   Section        0  interface.o(i.UserTimer_Init)
    UserTimer_Init                           0x0800ee11   Thumb Code    32  interface.o(i.UserTimer_Init)
    i.VF_Send_Request                        0x0800ee38   Section        0  canbus.o(i.VF_Send_Request)
    VF_Send_Request                          0x0800ee39   Thumb Code    46  canbus.o(i.VF_Send_Request)
    i.__NVIC_DisableIRQ                      0x0800ee70   Section        0  flash.o(i.__NVIC_DisableIRQ)
    __NVIC_DisableIRQ                        0x0800ee71   Thumb Code    34  flash.o(i.__NVIC_DisableIRQ)
    i.__NVIC_EnableIRQ                       0x0800ee92   Section        0  power.o(i.__NVIC_EnableIRQ)
    __NVIC_EnableIRQ                         0x0800ee93   Thumb Code    26  power.o(i.__NVIC_EnableIRQ)
    i.__NVIC_EnableIRQ                       0x0800eeac   Section        0  digital.o(i.__NVIC_EnableIRQ)
    __NVIC_EnableIRQ                         0x0800eead   Thumb Code    26  digital.o(i.__NVIC_EnableIRQ)
    i.__NVIC_EnableIRQ                       0x0800eec6   Section        0  flash.o(i.__NVIC_EnableIRQ)
    __NVIC_EnableIRQ                         0x0800eec7   Thumb Code    26  flash.o(i.__NVIC_EnableIRQ)
    i.__hardfp_atof                          0x0800eee0   Section        0  atof.o(i.__hardfp_atof)
    i.__read_errno                           0x0800ef18   Section        0  errno.o(i.__read_errno)
    i.__scatterload_copy                     0x0800ef24   Section       14  handlers.o(i.__scatterload_copy)
    i.__scatterload_null                     0x0800ef32   Section        2  handlers.o(i.__scatterload_null)
    i.__scatterload_zeroinit                 0x0800ef34   Section       14  handlers.o(i.__scatterload_zeroinit)
    i.__set_errno                            0x0800ef44   Section        0  errno.o(i.__set_errno)
    i._init_box                              0x0800ef50   Section        0  rt_membox.o(i._init_box)
    i._is_digit                              0x0800ef96   Section        0  scanf_fp.o(i._is_digit)
    i.cal_sum16_buffer                       0x0800efa4   Section        0  utils.o(i.cal_sum16_buffer)
    i.cal_sum_buffer                         0x0800efbc   Section        0  utils.o(i.cal_sum_buffer)
    i.dbg_init                               0x0800efd4   Section        0  hal_cm.o(i.dbg_init)
    i.dbg_task_notify                        0x0800f004   Section        0  hal_cm.o(i.dbg_task_notify)
    i.dbg_task_switch                        0x0800f024   Section        0  hal_cm.o(i.dbg_task_switch)
    i.device_battery_off                     0x0800f034   Section        0  power.o(i.device_battery_off)
    i.digital_init                           0x0800f040   Section        0  digital.o(i.digital_init)
    i.disable_irqn                           0x0800f0ec   Section        0  flash.o(i.disable_irqn)
    i.ec21_power_rst                         0x0800f128   Section        0  power.o(i.ec21_power_rst)
    i.enable_irqn                            0x0800f134   Section        0  flash.o(i.enable_irqn)
    i.findFaultCode                          0x0800f170   Section        0  canbus.o(i.findFaultCode)
    i.findFaultCodeJ1587                     0x0800f1b4   Section        0  digital.o(i.findFaultCodeJ1587)
    i.get_adc_values                         0x0800f20c   Section        0  power.o(i.get_adc_values)
    get_adc_values                           0x0800f20d   Thumb Code   334  power.o(i.get_adc_values)
    i.get_buzer_state                        0x0800f398   Section        0  interface.o(i.get_buzer_state)
    i.irqTimer_Init                          0x0800f3a4   Section        0  interface.o(i.irqTimer_Init)
    irqTimer_Init                            0x0800f3a5   Thumb Code   102  interface.o(i.irqTimer_Init)
    i.is_buzz_disable                        0x0800f414   Section        0  interface.o(i.is_buzz_disable)
    i.isrMessageGet                          0x0800f428   Section        0  rt_cmsis.o(i.isrMessageGet)
    i.isrMessagePut                          0x0800f452   Section        0  rt_cmsis.o(i.isrMessagePut)
    i.isrSemaphoreRelease                    0x0800f47e   Section        0  rt_cmsis.o(i.isrSemaphoreRelease)
    i.isr_mbx_receive                        0x0800f4a8   Section        0  rt_mailbox.o(i.isr_mbx_receive)
    i.isr_mbx_send                           0x0800f4fe   Section        0  rt_mailbox.o(i.isr_mbx_send)
    i.isr_sem_send                           0x0800f50c   Section        0  rt_semaphore.o(i.isr_sem_send)
    i.load_mcu_config                        0x0800f51c   Section        0  serial.o(i.load_mcu_config)
    i.main                                   0x0800f578   Section        0  main.o(i.main)
    i.osDelay                                0x0800f5f4   Section        0  rt_cmsis.o(i.osDelay)
    i.osKernelInitialize                     0x0800f60c   Section        0  rt_cmsis.o(i.osKernelInitialize)
    i.osKernelStart                          0x0800f630   Section        0  rt_cmsis.o(i.osKernelStart)
    i.osKernelSysTick                        0x0800f69c   Section        0  rt_cmsis.o(i.osKernelSysTick)
    i.osMailAlloc                            0x0800f6b4   Section        0  rt_cmsis.o(i.osMailAlloc)
    i.osMailCreate                           0x0800f6d0   Section        0  rt_cmsis.o(i.osMailCreate)
    i.osMailFree                             0x0800f6fc   Section        0  rt_cmsis.o(i.osMailFree)
    i.osMailGet                              0x0800f718   Section        0  rt_cmsis.o(i.osMailGet)
    i.osMailPut                              0x0800f72e   Section        0  rt_cmsis.o(i.osMailPut)
    i.osMessageCreate                        0x0800f744   Section        0  rt_cmsis.o(i.osMessageCreate)
    i.osMessageGet                           0x0800f770   Section        0  rt_cmsis.o(i.osMessageGet)
    i.osMessagePut                           0x0800f788   Section        0  rt_cmsis.o(i.osMessagePut)
    i.osSemaphoreCreate                      0x0800f7a0   Section        0  rt_cmsis.o(i.osSemaphoreCreate)
    i.osSemaphoreRelease                     0x0800f7cc   Section        0  rt_cmsis.o(i.osSemaphoreRelease)
    i.osSemaphoreWait                        0x0800f7e4   Section        0  rt_cmsis.o(i.osSemaphoreWait)
    i.osThreadCreate                         0x0800f7fc   Section        0  rt_cmsis.o(i.osThreadCreate)
    i.osThreadExit                           0x0800f828   Section        0  rt_cmsis.o(i.osThreadExit)
    i.osThreadYield                          0x0800f840   Section        0  rt_cmsis.o(i.osThreadYield)
    i.osTimerCall                            0x0800f858   Section        0  rt_cmsis.o(i.osTimerCall)
    i.osTimerCreate                          0x0800f864   Section        0  rt_cmsis.o(i.osTimerCreate)
    i.osTimerStart                           0x0800f890   Section        0  rt_cmsis.o(i.osTimerStart)
    i.osTimerThread                          0x0800f8a8   Section        0  rt_cmsis.o(i.osTimerThread)
    i.os_error                               0x0800f8d4   Section        0  rtx_conf_cm.o(i.os_error)
    i.os_idle_demon                          0x0800f94c   Section        0  rtx_conf_cm.o(i.os_idle_demon)
    i.os_tick_init                           0x0800f950   Section        0  rt_system.o(i.os_tick_init)
    i.os_tick_irqack                         0x0800f978   Section        0  rt_system.o(i.os_tick_irqack)
    i.os_tick_ovf                            0x0800f97c   Section        0  rt_system.o(i.os_tick_ovf)
    i.os_tick_val                            0x0800f98c   Section        0  rt_system.o(i.os_tick_val)
    i.rt_alloc_box                           0x0800f9a0   Section        0  rt_membox.o(i.rt_alloc_box)
    i.rt_alloc_mem                           0x0800f9ba   Section        0  rt_memory.o(i.rt_alloc_mem)
    i.rt_block                               0x0800f9f8   Section        0  rt_task.o(i.rt_block)
    i.rt_chk_robin                           0x0800fa30   Section        0  rt_robin.o(i.rt_chk_robin)
    i.rt_dec_dly                             0x0800fa78   Section        0  rt_list.o(i.rt_dec_dly)
    i.rt_dispatch                            0x0800fae8   Section        0  rt_task.o(i.rt_dispatch)
    i.rt_dly_wait                            0x0800fb2c   Section        0  rt_time.o(i.rt_dly_wait)
    i.rt_evt_psh                             0x0800fb34   Section        0  rt_event.o(i.rt_evt_psh)
    i.rt_free_box                            0x0800fb84   Section        0  rt_membox.o(i.rt_free_box)
    i.rt_free_mem                            0x0800fbb0   Section        0  rt_memory.o(i.rt_free_mem)
    i.rt_get_first                           0x0800fbd8   Section        0  rt_list.o(i.rt_get_first)
    i.rt_get_same_rdy_prio                   0x0800fc00   Section        0  rt_list.o(i.rt_get_same_rdy_prio)
    i.rt_id2obj                              0x0800fc24   Section        0  rt_cmsis.o(i.rt_id2obj)
    rt_id2obj                                0x0800fc25   Thumb Code     8  rt_cmsis.o(i.rt_id2obj)
    i.rt_init_context                        0x0800fc2c   Section        0  rt_task.o(i.rt_init_context)
    rt_init_context                          0x0800fc2d   Thumb Code    66  rt_task.o(i.rt_init_context)
    i.rt_init_mem                            0x0800fc74   Section        0  rt_memory.o(i.rt_init_mem)
    i.rt_init_robin                          0x0800fc90   Section        0  rt_robin.o(i.rt_init_robin)
    i.rt_init_stack                          0x0800fca8   Section        0  hal_cm.o(i.rt_init_stack)
    i.rt_mbx_check                           0x0800fd28   Section        0  rt_mailbox.o(i.rt_mbx_check)
    i.rt_mbx_init                            0x0800fd30   Section        0  rt_mailbox.o(i.rt_mbx_init)
    i.rt_mbx_psh                             0x0800fd4c   Section        0  rt_mailbox.o(i.rt_mbx_psh)
    i.rt_mbx_send                            0x0800fe3c   Section        0  rt_mailbox.o(i.rt_mbx_send)
    i.rt_mbx_wait                            0x0800fed4   Section        0  rt_mailbox.o(i.rt_mbx_wait)
    i.rt_ms2tick                             0x0800ff88   Section        0  rt_cmsis.o(i.rt_ms2tick)
    rt_ms2tick                               0x0800ff89   Thumb Code    58  rt_cmsis.o(i.rt_ms2tick)
    i.rt_pop_req                             0x0800ffcc   Section        0  rt_system.o(i.rt_pop_req)
    i.rt_psh_req                             0x08010048   Section        0  rt_system.o(i.rt_psh_req)
    i.rt_psq_enq                             0x08010068   Section        0  rt_list.o(i.rt_psq_enq)
    i.rt_put_dly                             0x080100c4   Section        0  rt_list.o(i.rt_put_dly)
    i.rt_put_prio                            0x0801010c   Section        0  rt_list.o(i.rt_put_prio)
    i.rt_put_rdy_first                       0x08010144   Section        0  rt_list.o(i.rt_put_rdy_first)
    i.rt_resort_prio                         0x08010158   Section        0  rt_list.o(i.rt_resort_prio)
    i.rt_ret_regs                            0x0801018c   Section        0  hal_cm.o(i.rt_ret_regs)
    rt_ret_regs                              0x0801018d   Thumb Code    16  hal_cm.o(i.rt_ret_regs)
    i.rt_ret_val                             0x0801019c   Section        0  hal_cm.o(i.rt_ret_val)
    i.rt_ret_val2                            0x080101a8   Section        0  hal_cm.o(i.rt_ret_val2)
    i.rt_rmv_dly                             0x080101b8   Section        0  rt_list.o(i.rt_rmv_dly)
    i.rt_rmv_list                            0x080101e0   Section        0  rt_list.o(i.rt_rmv_list)
    i.rt_sem_init                            0x08010210   Section        0  rt_semaphore.o(i.rt_sem_init)
    i.rt_sem_psh                             0x0801021c   Section        0  rt_semaphore.o(i.rt_sem_psh)
    i.rt_sem_send                            0x08010250   Section        0  rt_semaphore.o(i.rt_sem_send)
    i.rt_sem_wait                            0x0801027c   Section        0  rt_semaphore.o(i.rt_sem_wait)
    i.rt_stk_check                           0x080102bc   Section        0  rt_system.o(i.rt_stk_check)
    i.rt_switch_req                          0x080102e0   Section        0  rt_task.o(i.rt_switch_req)
    i.rt_sys_init                            0x08010308   Section        0  rt_task.o(i.rt_sys_init)
    i.rt_sys_start                           0x080103d4   Section        0  rt_task.o(i.rt_sys_start)
    i.rt_systick                             0x0801044c   Section        0  rt_system.o(i.rt_systick)
    i.rt_tid2ptcb                            0x0801048c   Section        0  rt_cmsis.o(i.rt_tid2ptcb)
    rt_tid2ptcb                              0x0801048d   Thumb Code    18  rt_cmsis.o(i.rt_tid2ptcb)
    i.rt_timer_insert                        0x080104a0   Section        0  rt_cmsis.o(i.rt_timer_insert)
    rt_timer_insert                          0x080104a1   Thumb Code    48  rt_cmsis.o(i.rt_timer_insert)
    i.rt_timer_remove                        0x080104d4   Section        0  rt_cmsis.o(i.rt_timer_remove)
    rt_timer_remove                          0x080104d5   Thumb Code    56  rt_cmsis.o(i.rt_timer_remove)
    i.rt_tsk_create                          0x08010510   Section        0  rt_task.o(i.rt_tsk_create)
    i.rt_tsk_delete                          0x08010598   Section        0  rt_task.o(i.rt_tsk_delete)
    i.rt_tsk_pass                            0x08010714   Section        0  rt_task.o(i.rt_tsk_pass)
    i.rt_tsk_prio                            0x08010744   Section        0  rt_task.o(i.rt_tsk_prio)
    i.rt_tsk_self                            0x080107c0   Section        0  rt_task.o(i.rt_tsk_self)
    i.serial_report_data                     0x080107d0   Section        0  serial.o(i.serial_report_data)
    i.str_trim                               0x0801098c   Section        0  utils.o(i.str_trim)
    i.svcDelay                               0x080109ba   Section        0  rt_cmsis.o(i.svcDelay)
    i.svcKernelInitialize                    0x080109cc   Section        0  rt_cmsis.o(i.svcKernelInitialize)
    i.svcKernelStart                         0x08010a3c   Section        0  rt_cmsis.o(i.svcKernelStart)
    i.svcKernelSysTick                       0x08010a84   Section        0  rt_cmsis.o(i.svcKernelSysTick)
    i.svcMailCreate                          0x08010abc   Section        0  rt_cmsis.o(i.svcMailCreate)
    i.svcMessageCreate                       0x08010afe   Section        0  rt_cmsis.o(i.svcMessageCreate)
    i.svcMessageGet                          0x08010b22   Section        0  rt_cmsis.o(i.svcMessageGet)
    i.svcMessagePut                          0x08010b5c   Section        0  rt_cmsis.o(i.svcMessagePut)
    i.svcSemaphoreCreate                     0x08010b92   Section        0  rt_cmsis.o(i.svcSemaphoreCreate)
    i.svcSemaphoreRelease                    0x08010bb6   Section        0  rt_cmsis.o(i.svcSemaphoreRelease)
    i.svcSemaphoreWait                       0x08010bde   Section        0  rt_cmsis.o(i.svcSemaphoreWait)
    i.svcThreadCreate                        0x08010c10   Section        0  rt_cmsis.o(i.svcThreadCreate)
    i.svcThreadGetId                         0x08010c7c   Section        0  rt_cmsis.o(i.svcThreadGetId)
    i.svcThreadTerminate                     0x08010c98   Section        0  rt_cmsis.o(i.svcThreadTerminate)
    i.svcThreadYield                         0x08010cd0   Section        0  rt_cmsis.o(i.svcThreadYield)
    i.svcTimerCall                           0x08010cda   Section        0  rt_cmsis.o(i.svcTimerCall)
    i.svcTimerCreate                         0x08010cf4   Section        0  rt_cmsis.o(i.svcTimerCreate)
    i.svcTimerStart                          0x08010d2c   Section        0  rt_cmsis.o(i.svcTimerStart)
    i.sysMailAlloc                           0x08010d90   Section        0  rt_cmsis.o(i.sysMailAlloc)
    i.sysMailFree                            0x08010de8   Section        0  rt_cmsis.o(i.sysMailFree)
    i.sysTimerTick                           0x08010e48   Section        0  rt_cmsis.o(i.sysTimerTick)
    i.vIRLedTask                             0x08010ea4   Section        0  power.o(i.vIRLedTask)
    i.vJ1587HandlerTask                      0x0801103c   Section        0  digital.o(i.vJ1587HandlerTask)
    i.vJ1587RequestTask                      0x080110b0   Section        0  digital.o(i.vJ1587RequestTask)
    i.vJ1939Task                             0x08011150   Section        0  canbus.o(i.vJ1939Task)
    i.vPowerTask                             0x08011220   Section        0  power.o(i.vPowerTask)
    i.vSerialReceiver                        0x08011468   Section        0  serial.o(i.vSerialReceiver)
    i.vSerialTask                            0x080114fc   Section        0  serial.o(i.vSerialTask)
    i.vSerialTransfer                        0x080116a4   Section        0  serial.o(i.vSerialTransfer)
    i.vUART4Receiver                         0x080116b8   Section        0  digital.o(i.vUART4Receiver)
    i.vUSART2Receiver                        0x08011770   Section        0  digital.o(i.vUSART2Receiver)
    .constdata                               0x08011894   Section       72  serial.o(.constdata)
    .constdata                               0x080118dc   Section       32  power.o(.constdata)
    .constdata                               0x080118fc   Section     1280  utils.o(.constdata)
    .constdata                               0x08011dfc   Section      100  digital.o(.constdata)
    .constdata                               0x08011e60   Section       16  canbus.o(.constdata)
    .constdata                               0x08011e70   Section       16  interface.o(.constdata)
    .constdata                               0x08011e80   Section        2  rtx_conf_cm.o(.constdata)
    .constdata                               0x08011e84   Section        4  rtx_conf_cm.o(.constdata)
    .constdata                               0x08011e88   Section        4  rtx_conf_cm.o(.constdata)
    .constdata                               0x08011e8c   Section        2  rtx_conf_cm.o(.constdata)
    .constdata                               0x08011e8e   Section        2  rtx_conf_cm.o(.constdata)
    .constdata                               0x08011e90   Section        4  rtx_conf_cm.o(.constdata)
    .constdata                               0x08011e94   Section        1  rtx_conf_cm.o(.constdata)
    .constdata                               0x08011e98   Section       32  rtx_conf_cm.o(.constdata)
    __tagsym$$used                           0x08011e98   Number         0  rtx_conf_cm.o(.constdata)
    __tagsym$$used                           0x08011e9c   Number         0  rtx_conf_cm.o(.constdata)
    __tagsym$$used                           0x08011ea0   Number         0  rtx_conf_cm.o(.constdata)
    __tagsym$$used                           0x08011ea4   Number         0  rtx_conf_cm.o(.constdata)
    .constdata                               0x08011eb8   Section        2  rtx_conf_cm.o(.constdata)
    .constdata                               0x08011ebc   Section        4  rtx_conf_cm.o(.constdata)
    .constdata                               0x08011ec0   Section        4  rtx_conf_cm.o(.constdata)
    .constdata                               0x08011ec4   Section        1  rtx_conf_cm.o(.constdata)
    .constdata                               0x08011ec8   Section       16  rtx_conf_cm.o(.constdata)
    .constdata                               0x08011ed8   Section        8  rtx_conf_cm.o(.constdata)
    .constdata                               0x08011ee0   Section        2  rtx_conf_cm.o(.constdata)
    .constdata                               0x08011ee2   Section       64  ctype_c.o(.constdata)
    .conststring                             0x08011f24   Section       76  serial.o(.conststring)
    .data                                    0x20000000   Section        8  serial.o(.data)
    .data                                    0x20000008   Section       42  serial.o(.data)
    rxChar                                   0x20000008   Data           1  serial.o(.data)
    state                                    0x20000009   Data           1  serial.o(.data)
    rxd                                      0x2000000a   Data           1  serial.o(.data)
    loss_gps_cnt                             0x20000010   Data           2  serial.o(.data)
    .data                                    0x20000034   Section        8  serial.o(.data)
    .data                                    0x2000003c   Section       28  power.o(.data)
    BAT_FilterIdx                            0x20000043   Data           1  power.o(.data)
    ADC_FilterIdx                            0x20000044   Data           1  power.o(.data)
    .data                                    0x20000058   Section       60  digital.o(.data)
    rxChar                                   0x2000005b   Data           1  digital.o(.data)
    state                                    0x2000005c   Data           1  digital.o(.data)
    rxChar                                   0x2000005d   Data           1  digital.o(.data)
    state                                    0x2000005e   Data           1  digital.o(.data)
    rxd                                      0x2000005f   Data           1  digital.o(.data)
    rxd                                      0x20000060   Data           1  digital.o(.data)
    uTimId                                   0x2000006c   Data           4  digital.o(.data)
    .data                                    0x20000094   Section        8  digital.o(.data)
    .data                                    0x200000a0   Section       40  canbus.o(.data)
    StepResq                                 0x200000ac   Data           2  canbus.o(.data)
    .data                                    0x200000c8   Section       24  interface.o(.data)
    buzz_state                               0x200000ca   Data           1  interface.o(.data)
    tHold                                    0x200000ce   Data           1  interface.o(.data)
    LedBuzzerState                           0x200000cf   Data           1  interface.o(.data)
    LedTime                                  0x200000d0   Data           2  interface.o(.data)
    BuzzTime                                 0x200000d2   Data           2  interface.o(.data)
    BuzzerTime                               0x200000d4   Data           2  interface.o(.data)
    bTimId                                   0x200000d8   Data           4  interface.o(.data)
    uTimId                                   0x200000dc   Data           4  interface.o(.data)
    .data                                    0x200000e0   Section       48  stm32f30x_rcc.o(.data)
    APBAHBPrescTable                         0x200000e0   Data          16  stm32f30x_rcc.o(.data)
    ADCPrescTable                            0x200000f0   Data          32  stm32f30x_rcc.o(.data)
    .data                                    0x20000110   Section        4  rtx_conf_cm.o(.data)
    .data                                    0x20000114   Section        4  rtx_conf_cm.o(.data)
    .data                                    0x20000118   Section        4  rtx_conf_cm.o(.data)
    .data                                    0x2000011c   Section        8  rt_cmsis.o(.data)
    .data                                    0x20000124   Section        8  rt_task.o(.data)
    .data                                    0x2000012c   Section        8  rt_system.o(.data)
    os_lock                                  0x2000012c   Data           1  rt_system.o(.data)
    os_psh_flag                              0x2000012d   Data           1  rt_system.o(.data)
    pend_flags                               0x2000012e   Data           1  rt_system.o(.data)
    .data                                    0x20000134   Section        4  rt_time.o(.data)
    .data                                    0x20000138   Section        1  hal_cm.o(.data)
    .data                                    0x2000013c   Section        8  rt_robin.o(.data)
    .data                                    0x20000144   Section        4  errno.o(.data)
    _errno                                   0x20000144   Data           4  errno.o(.data)
    .bss                                     0x20000148   Section     2064  serial.o(.bss)
    .bss                                     0x20000958   Section       28  serial.o(.bss)
    .bss                                     0x20000974   Section     1648  serial.o(.bss)
    .bss                                     0x20000fe4   Section     1560  serial.o(.bss)
    .bss                                     0x200015fc   Section      354  power.o(.bss)
    PulseData                                0x2000162c   Data          28  power.o(.bss)
    adc_values_                              0x20001652   Data         140  power.o(.bss)
    BAT_FilterArr                            0x200016de   Data          64  power.o(.bss)
    ADC_FilterArr                            0x2000171e   Data          64  power.o(.bss)
    .bss                                     0x20001760   Section      528  digital.o(.bss)
    .bss                                     0x20001970   Section     2064  digital.o(.bss)
    .bss                                     0x20002180   Section       36  digital.o(.bss)
    .bss                                     0x200021a4   Section       24  digital.o(.bss)
    os_timer_cb_FuelTimer                    0x200021a4   Data          24  digital.o(.bss)
    .bss                                     0x200021bc   Section      980  digital.o(.bss)
    .bss                                     0x20002590   Section     2592  digital.o(.bss)
    .bss                                     0x20002fb0   Section      480  canbus.o(.bss)
    .bss                                     0x20003190   Section       24  interface.o(.bss)
    os_timer_cb_UserTimer                    0x20003190   Data          24  interface.o(.bss)
    .bss                                     0x200031a8   Section       24  interface.o(.bss)
    os_timer_cb_ButtonTimer                  0x200031a8   Data          24  interface.o(.bss)
    .bss                                     0x200031c0   Section       32  rtx_conf_cm.o(.bss)
    .bss                                     0x200031e0   Section      896  rtx_conf_cm.o(.bss)
    .bss                                     0x20003560   Section     7184  rtx_conf_cm.o(.bss)
    .bss                                     0x20005170   Section    10744  rtx_conf_cm.o(.bss)
    .bss                                     0x20007b68   Section      516  rtx_conf_cm.o(.bss)
    .bss                                     0x20007d6c   Section       68  rtx_conf_cm.o(.bss)
    .bss                                     0x20007db0   Section       52  rt_task.o(.bss)
    .bss                                     0x20007de4   Section       48  rt_list.o(.bss)
    STACK                                    0x20007e18   Section     1024  startup_stm32f302xc.o(STACK)

    Global Symbols

    Symbol Name                              Value     Ov Type        Size  Object(Section)

    BuildAttributes$$THM_ISAv4$E$P$D$K$B$S$7EM$VFPi3$EXTD16$VFPS$VFMA$PE$A:L22UL41UL21$X:L11$S22US41US21$IEEE1$IW$USESV6$~STKCKD$USESV7$~SHL$OTIME$ROPI$IEEEJ$EBA8$MICROLIB$REQ8$PRES8$EABIv2 0x00000000   Number         0  anon$$obj.o ABSOLUTE
    __ARM_use_no_argv                        0x00000000   Number         0  main.o ABSOLUTE
    _printf_a                                0x00000000   Number         0  stubs.o ABSOLUTE
    _printf_c                                0x00000000   Number         0  stubs.o ABSOLUTE
    _printf_charcount                        0x00000000   Number         0  stubs.o ABSOLUTE
    _printf_d                                0x00000000   Number         0  stubs.o ABSOLUTE
    _printf_e                                0x00000000   Number         0  stubs.o ABSOLUTE
    _printf_f                                0x00000000   Number         0  stubs.o ABSOLUTE
    _printf_flags                            0x00000000   Number         0  stubs.o ABSOLUTE
    _printf_fp_dec                           0x00000000   Number         0  stubs.o ABSOLUTE
    _printf_fp_hex                           0x00000000   Number         0  stubs.o ABSOLUTE
    _printf_g                                0x00000000   Number         0  stubs.o ABSOLUTE
    _printf_i                                0x00000000   Number         0  stubs.o ABSOLUTE
    _printf_int_dec                          0x00000000   Number         0  stubs.o ABSOLUTE
    _printf_l                                0x00000000   Number         0  stubs.o ABSOLUTE
    _printf_lc                               0x00000000   Number         0  stubs.o ABSOLUTE
    _printf_ll                               0x00000000   Number         0  stubs.o ABSOLUTE
    _printf_lld                              0x00000000   Number         0  stubs.o ABSOLUTE
    _printf_lli                              0x00000000   Number         0  stubs.o ABSOLUTE
    _printf_llo                              0x00000000   Number         0  stubs.o ABSOLUTE
    _printf_llu                              0x00000000   Number         0  stubs.o ABSOLUTE
    _printf_llx                              0x00000000   Number         0  stubs.o ABSOLUTE
    _printf_longlong_dec                     0x00000000   Number         0  stubs.o ABSOLUTE
    _printf_longlong_hex                     0x00000000   Number         0  stubs.o ABSOLUTE
    _printf_longlong_oct                     0x00000000   Number         0  stubs.o ABSOLUTE
    _printf_ls                               0x00000000   Number         0  stubs.o ABSOLUTE
    _printf_mbtowc                           0x00000000   Number         0  stubs.o ABSOLUTE
    _printf_n                                0x00000000   Number         0  stubs.o ABSOLUTE
    _printf_o                                0x00000000   Number         0  stubs.o ABSOLUTE
    _printf_p                                0x00000000   Number         0  stubs.o ABSOLUTE
    _printf_percent                          0x00000000   Number         0  stubs.o ABSOLUTE
    _printf_pre_padding                      0x00000000   Number         0  stubs.o ABSOLUTE
    _printf_return_value                     0x00000000   Number         0  stubs.o ABSOLUTE
    _printf_s                                0x00000000   Number         0  stubs.o ABSOLUTE
    _printf_sizespec                         0x00000000   Number         0  stubs.o ABSOLUTE
    _printf_str                              0x00000000   Number         0  stubs.o ABSOLUTE
    _printf_truncate_signed                  0x00000000   Number         0  stubs.o ABSOLUTE
    _printf_truncate_unsigned                0x00000000   Number         0  stubs.o ABSOLUTE
    _printf_u                                0x00000000   Number         0  stubs.o ABSOLUTE
    _printf_wc                               0x00000000   Number         0  stubs.o ABSOLUTE
    _printf_wctomb                           0x00000000   Number         0  stubs.o ABSOLUTE
    _printf_widthprec                        0x00000000   Number         0  stubs.o ABSOLUTE
    _printf_x                                0x00000000   Number         0  stubs.o ABSOLUTE
    __arm_fini_                               - Undefined Weak Reference
    __cpp_initialize__aeabi_                  - Undefined Weak Reference
    __cxa_finalize                            - Undefined Weak Reference
    _clock_init                               - Undefined Weak Reference
    _microlib_exit                            - Undefined Weak Reference
    _scanf_longlong                           - Undefined Weak Reference
    _scanf_string                             - Undefined Weak Reference
    __Vectors_Size                           0x00000188   Number         0  startup_stm32f302xc.o ABSOLUTE
    __RL_RTX_VER                             0x00000482   Number         0  rt_system.o ABSOLUTE
    __Vectors                                0x0800a000   Data           4  startup_stm32f302xc.o(RESET)
    __Vectors_End                            0x0800a188   Data           0  startup_stm32f302xc.o(RESET)
    __main                                   0x0800a189   Thumb Code     0  entry.o(.ARM.Collect$$$$00000000)
    _main_stk                                0x0800a189   Thumb Code     0  entry2.o(.ARM.Collect$$$$00000001)
    _main_scatterload                        0x0800a18d   Thumb Code     0  entry5.o(.ARM.Collect$$$$00000004)
    __main_after_scatterload                 0x0800a191   Thumb Code     0  entry5.o(.ARM.Collect$$$$00000004)
    __rt_lib_shutdown_fini                   0x0800a191   Thumb Code     0  entry12b.o(.ARM.Collect$$$$0000000E)
    _main_clock                              0x0800a191   Thumb Code     0  entry7b.o(.ARM.Collect$$$$00000008)
    _main_cpp_init                           0x0800a191   Thumb Code     0  entry8b.o(.ARM.Collect$$$$0000000A)
    __rt_final_cpp                           0x0800a195   Thumb Code     0  entry10a.o(.ARM.Collect$$$$0000000F)
    __rt_final_exit                          0x0800a195   Thumb Code     0  entry11a.o(.ARM.Collect$$$$00000011)
    _main_init                               0x0800a195   Thumb Code    18  rtx_conf_cm.o(.ARM.Collect$$$$000000FF)
    rt_set_PSP                               0x0800a1b1   Thumb Code     6  hal_cm4.o(.emb_text)
    rt_get_PSP                               0x0800a1b7   Thumb Code     6  hal_cm4.o(.emb_text)
    os_set_env                               0x0800a1bd   Thumb Code    24  hal_cm4.o(.emb_text)
    _alloc_box                               0x0800a1d9   Thumb Code    28  hal_cm4.o(.emb_text)
    _free_box                                0x0800a1f9   Thumb Code    28  hal_cm4.o(.emb_text)
    SVC_Handler                              0x0800a219   Thumb Code   168  hal_cm4.o(.emb_text)
    PendSV_Handler                           0x0800a2d1   Thumb Code    96  hal_cm4.o(.emb_text)
    SysTick_Handler                          0x0800a335   Thumb Code     8  hal_cm4.o(.emb_text)
    OS_Tick_Handler                          0x0800a33d   Thumb Code    12  hal_cm4.o(.emb_text)
    Reset_Handler                            0x0800a349   Thumb Code     8  startup_stm32f302xc.o(.text)
    ADC1_2_IRQHandler                        0x0800a363   Thumb Code     0  startup_stm32f302xc.o(.text)
    ADC3_IRQHandler                          0x0800a363   Thumb Code     0  startup_stm32f302xc.o(.text)
    ADC4_IRQHandler                          0x0800a363   Thumb Code     0  startup_stm32f302xc.o(.text)
    CAN1_RX1_IRQHandler                      0x0800a363   Thumb Code     0  startup_stm32f302xc.o(.text)
    CAN1_SCE_IRQHandler                      0x0800a363   Thumb Code     0  startup_stm32f302xc.o(.text)
    COMP1_2_3_IRQHandler                     0x0800a363   Thumb Code     0  startup_stm32f302xc.o(.text)
    COMP4_5_6_IRQHandler                     0x0800a363   Thumb Code     0  startup_stm32f302xc.o(.text)
    COMP7_IRQHandler                         0x0800a363   Thumb Code     0  startup_stm32f302xc.o(.text)
    DMA1_Channel2_IRQHandler                 0x0800a363   Thumb Code     0  startup_stm32f302xc.o(.text)
    DMA1_Channel3_IRQHandler                 0x0800a363   Thumb Code     0  startup_stm32f302xc.o(.text)
    DMA1_Channel4_IRQHandler                 0x0800a363   Thumb Code     0  startup_stm32f302xc.o(.text)
    DMA1_Channel5_IRQHandler                 0x0800a363   Thumb Code     0  startup_stm32f302xc.o(.text)
    DMA1_Channel6_IRQHandler                 0x0800a363   Thumb Code     0  startup_stm32f302xc.o(.text)
    DMA1_Channel7_IRQHandler                 0x0800a363   Thumb Code     0  startup_stm32f302xc.o(.text)
    DMA2_Channel1_IRQHandler                 0x0800a363   Thumb Code     0  startup_stm32f302xc.o(.text)
    DMA2_Channel2_IRQHandler                 0x0800a363   Thumb Code     0  startup_stm32f302xc.o(.text)
    DMA2_Channel3_IRQHandler                 0x0800a363   Thumb Code     0  startup_stm32f302xc.o(.text)
    DMA2_Channel4_IRQHandler                 0x0800a363   Thumb Code     0  startup_stm32f302xc.o(.text)
    DMA2_Channel5_IRQHandler                 0x0800a363   Thumb Code     0  startup_stm32f302xc.o(.text)
    EXTI1_IRQHandler                         0x0800a363   Thumb Code     0  startup_stm32f302xc.o(.text)
    EXTI2_TS_IRQHandler                      0x0800a363   Thumb Code     0  startup_stm32f302xc.o(.text)
    EXTI3_IRQHandler                         0x0800a363   Thumb Code     0  startup_stm32f302xc.o(.text)
    EXTI4_IRQHandler                         0x0800a363   Thumb Code     0  startup_stm32f302xc.o(.text)
    EXTI9_5_IRQHandler                       0x0800a363   Thumb Code     0  startup_stm32f302xc.o(.text)
    FLASH_IRQHandler                         0x0800a363   Thumb Code     0  startup_stm32f302xc.o(.text)
    FPU_IRQHandler                           0x0800a363   Thumb Code     0  startup_stm32f302xc.o(.text)
    I2C1_ER_IRQHandler                       0x0800a363   Thumb Code     0  startup_stm32f302xc.o(.text)
    I2C1_EV_IRQHandler                       0x0800a363   Thumb Code     0  startup_stm32f302xc.o(.text)
    I2C2_ER_IRQHandler                       0x0800a363   Thumb Code     0  startup_stm32f302xc.o(.text)
    I2C2_EV_IRQHandler                       0x0800a363   Thumb Code     0  startup_stm32f302xc.o(.text)
    PVD_IRQHandler                           0x0800a363   Thumb Code     0  startup_stm32f302xc.o(.text)
    RCC_IRQHandler                           0x0800a363   Thumb Code     0  startup_stm32f302xc.o(.text)
    RTC_Alarm_IRQHandler                     0x0800a363   Thumb Code     0  startup_stm32f302xc.o(.text)
    RTC_WKUP_IRQHandler                      0x0800a363   Thumb Code     0  startup_stm32f302xc.o(.text)
    SPI1_IRQHandler                          0x0800a363   Thumb Code     0  startup_stm32f302xc.o(.text)
    SPI2_IRQHandler                          0x0800a363   Thumb Code     0  startup_stm32f302xc.o(.text)
    SPI3_IRQHandler                          0x0800a363   Thumb Code     0  startup_stm32f302xc.o(.text)
    TAMPER_STAMP_IRQHandler                  0x0800a363   Thumb Code     0  startup_stm32f302xc.o(.text)
    TIM1_BRK_TIM15_IRQHandler                0x0800a363   Thumb Code     0  startup_stm32f302xc.o(.text)
    TIM1_CC_IRQHandler                       0x0800a363   Thumb Code     0  startup_stm32f302xc.o(.text)
    TIM1_TRG_COM_TIM17_IRQHandler            0x0800a363   Thumb Code     0  startup_stm32f302xc.o(.text)
    TIM1_UP_TIM16_IRQHandler                 0x0800a363   Thumb Code     0  startup_stm32f302xc.o(.text)
    TIM2_IRQHandler                          0x0800a363   Thumb Code     0  startup_stm32f302xc.o(.text)
    TIM6_DAC_IRQHandler                      0x0800a363   Thumb Code     0  startup_stm32f302xc.o(.text)
    TIM7_IRQHandler                          0x0800a363   Thumb Code     0  startup_stm32f302xc.o(.text)
    TIM8_BRK_IRQHandler                      0x0800a363   Thumb Code     0  startup_stm32f302xc.o(.text)
    TIM8_CC_IRQHandler                       0x0800a363   Thumb Code     0  startup_stm32f302xc.o(.text)
    TIM8_TRG_COM_IRQHandler                  0x0800a363   Thumb Code     0  startup_stm32f302xc.o(.text)
    TIM8_UP_IRQHandler                       0x0800a363   Thumb Code     0  startup_stm32f302xc.o(.text)
    UART5_IRQHandler                         0x0800a363   Thumb Code     0  startup_stm32f302xc.o(.text)
    USART3_IRQHandler                        0x0800a363   Thumb Code     0  startup_stm32f302xc.o(.text)
    USBWakeUp_IRQHandler                     0x0800a363   Thumb Code     0  startup_stm32f302xc.o(.text)
    USBWakeUp_RMP_IRQHandler                 0x0800a363   Thumb Code     0  startup_stm32f302xc.o(.text)
    USB_HP_CAN1_TX_IRQHandler                0x0800a363   Thumb Code     0  startup_stm32f302xc.o(.text)
    USB_HP_IRQHandler                        0x0800a363   Thumb Code     0  startup_stm32f302xc.o(.text)
    USB_LP_IRQHandler                        0x0800a363   Thumb Code     0  startup_stm32f302xc.o(.text)
    WWDG_IRQHandler                          0x0800a363   Thumb Code     0  startup_stm32f302xc.o(.text)
    __aeabi_uldivmod                         0x0800a36d   Thumb Code    98  uldiv.o(.text)
    __aeabi_memcpy                           0x0800a3cf   Thumb Code    36  memcpya.o(.text)
    __aeabi_memcpy4                          0x0800a3cf   Thumb Code     0  memcpya.o(.text)
    __aeabi_memcpy8                          0x0800a3cf   Thumb Code     0  memcpya.o(.text)
    __aeabi_memset                           0x0800a3f3   Thumb Code    14  memseta.o(.text)
    __aeabi_memset4                          0x0800a3f3   Thumb Code     0  memseta.o(.text)
    __aeabi_memset8                          0x0800a3f3   Thumb Code     0  memseta.o(.text)
    __aeabi_memclr                           0x0800a401   Thumb Code     4  memseta.o(.text)
    __aeabi_memclr4                          0x0800a401   Thumb Code     0  memseta.o(.text)
    __aeabi_memclr8                          0x0800a401   Thumb Code     0  memseta.o(.text)
    _memset$wrapper                          0x0800a405   Thumb Code    18  memseta.o(.text)
    strlen                                   0x0800a417   Thumb Code    14  strlen.o(.text)
    strncmp                                  0x0800a425   Thumb Code    30  strncmp.o(.text)
    __0sscanf                                0x0800a445   Thumb Code    48  __0sscanf.o(.text)
    _scanf_int                               0x0800a47d   Thumb Code   332  _scanf_int.o(.text)
    __aeabi_dadd                             0x0800a5c9   Thumb Code   322  dadd.o(.text)
    __aeabi_dsub                             0x0800a70b   Thumb Code     6  dadd.o(.text)
    __aeabi_drsub                            0x0800a711   Thumb Code     6  dadd.o(.text)
    __aeabi_dmul                             0x0800a717   Thumb Code   228  dmul.o(.text)
    __aeabi_ddiv                             0x0800a7fb   Thumb Code   222  ddiv.o(.text)
    __aeabi_i2d                              0x0800a8d9   Thumb Code    34  dflti.o(.text)
    __aeabi_ui2d                             0x0800a8fb   Thumb Code    26  dfltui.o(.text)
    __aeabi_d2uiz                            0x0800a915   Thumb Code    50  dfixui.o(.text)
    __aeabi_cdcmpeq                          0x0800a949   Thumb Code     0  cdcmple.o(.text)
    __aeabi_cdcmple                          0x0800a949   Thumb Code    48  cdcmple.o(.text)
    __aeabi_d2f                              0x0800a979   Thumb Code    56  d2f.o(.text)
    __aeabi_llsl                             0x0800a9b1   Thumb Code    30  llshl.o(.text)
    _ll_shift_l                              0x0800a9b1   Thumb Code     0  llshl.o(.text)
    __aeabi_llsr                             0x0800a9cf   Thumb Code    32  llushr.o(.text)
    _ll_ushift_r                             0x0800a9cf   Thumb Code     0  llushr.o(.text)
    __aeabi_lasr                             0x0800a9ef   Thumb Code    36  llsshr.o(.text)
    _ll_sshift_r                             0x0800a9ef   Thumb Code     0  llsshr.o(.text)
    _chval                                   0x0800aa13   Thumb Code    28  _chval.o(.text)
    __vfscanf_char                           0x0800aa3d   Thumb Code    20  scanf_char.o(.text)
    _sgetc                                   0x0800aa59   Thumb Code    30  _sgetc.o(.text)
    _sbackspace                              0x0800aa77   Thumb Code    34  _sgetc.o(.text)
    __strtod_int                             0x0800aacf   Thumb Code    90  strtod.o(.text)
    __I$use$fp                               0x0800ab35   Thumb Code     0  iusefp.o(.text)
    _float_round                             0x0800ab35   Thumb Code    18  fepilogue.o(.text)
    _float_epilogue                          0x0800ab47   Thumb Code    92  fepilogue.o(.text)
    _double_round                            0x0800aba3   Thumb Code    30  depilogue.o(.text)
    _double_epilogue                         0x0800abc1   Thumb Code   156  depilogue.o(.text)
    __scatterload                            0x0800ac5d   Thumb Code    28  init.o(.text)
    __scatterload_rt2                        0x0800ac5d   Thumb Code     0  init.o(.text)
    isspace                                  0x0800ac81   Thumb Code    10  isspace_c.o(.text)
    __vfscanf                                0x0800ac8d   Thumb Code   810  _scanf.o(.text)
    _scanf_real                              0x0800b0e5   Thumb Code     0  scanf_fp.o(.text)
    _scanf_really_real                       0x0800b0e5   Thumb Code   556  scanf_fp.o(.text)
    __ctype_lookup                           0x0800b31d   Thumb Code    34  ctype_c.o(.text)
    __aeabi_ul2d                             0x0800b345   Thumb Code    24  dfltul.o(.text)
    __decompress                             0x0800b35d   Thumb Code     0  __dczerorl2.o(.text)
    __decompress1                            0x0800b35d   Thumb Code    86  __dczerorl2.o(.text)
    SVC_Count                                0x0800b3b4   Data           4  svc_table.o(SVC_TABLE)
    ADC_Cmd                                  0x0800b3b9   Thumb Code    20  stm32f30x_adc.o(i.ADC_Cmd)
    SVC_Table                                0x0800b3b8   Data           0  svc_table.o(SVC_TABLE)
    ADC_CommonInit                           0x0800b3cd   Thumb Code    72  stm32f30x_adc.o(i.ADC_CommonInit)
    ADC_DMACmd                               0x0800b421   Thumb Code    20  stm32f30x_adc.o(i.ADC_DMACmd)
    ADC_DMAConfig                            0x0800b435   Thumb Code    16  stm32f30x_adc.o(i.ADC_DMAConfig)
    ADC_GetCalibrationStatus                 0x0800b445   Thumb Code    14  stm32f30x_adc.o(i.ADC_GetCalibrationStatus)
    ADC_GetFlagStatus                        0x0800b453   Thumb Code    14  stm32f30x_adc.o(i.ADC_GetFlagStatus)
    ADC_Init                                 0x0800b461   Thumb Code    54  stm32f30x_adc.o(i.ADC_Init)
    ADC_RegularChannelConfig                 0x0800b69d   Thumb Code   172  stm32f30x_adc.o(i.ADC_RegularChannelConfig)
    ADC_SelectCalibrationMode                0x0800b749   Thumb Code    16  stm32f30x_adc.o(i.ADC_SelectCalibrationMode)
    ADC_StartCalibration                     0x0800b759   Thumb Code    10  stm32f30x_adc.o(i.ADC_StartCalibration)
    ADC_StartConversion                      0x0800b763   Thumb Code    10  stm32f30x_adc.o(i.ADC_StartConversion)
    ADC_StructInit                           0x0800b76d   Thumb Code    22  stm32f30x_adc.o(i.ADC_StructInit)
    ADC_TempSensorCmd                        0x0800b783   Thumb Code    28  stm32f30x_adc.o(i.ADC_TempSensorCmd)
    ADC_VoltageRegulatorCmd                  0x0800b79f   Thumb Code    28  stm32f30x_adc.o(i.ADC_VoltageRegulatorCmd)
    ArraySort                                0x0800b81d   Thumb Code    46  utils.o(i.ArraySort)
    BusFault_Handler                         0x0800bc59   Thumb Code     8  stm32f30x_it.o(i.BusFault_Handler)
    Buzz_Off                                 0x0800bd1d   Thumb Code    64  interface.o(i.Buzz_Off)
    Buzz_On                                  0x0800bd65   Thumb Code    48  interface.o(i.Buzz_On)
    CAN_ClearITPendingBit                    0x0800bd99   Thumb Code   116  stm32f30x_can.o(i.CAN_ClearITPendingBit)
    CAN_DeInit                               0x0800bf0d   Thumb Code    24  stm32f30x_can.o(i.CAN_DeInit)
    CAN_FilterInit                           0x0800bf25   Thumb Code   194  stm32f30x_can.o(i.CAN_FilterInit)
    CAN_GetITStatus                          0x0800bff1   Thumb Code   162  stm32f30x_can.o(i.CAN_GetITStatus)
    CAN_ITConfig                             0x0800c099   Thumb Code    16  stm32f30x_can.o(i.CAN_ITConfig)
    CAN_Init                                 0x0800c0a9   Thumb Code   242  stm32f30x_can.o(i.CAN_Init)
    CAN_Receive                              0x0800c19b   Thumb Code   142  stm32f30x_can.o(i.CAN_Receive)
    CAN_StructInit                           0x0800c229   Thumb Code    32  stm32f30x_can.o(i.CAN_StructInit)
    CAN_Transmit                             0x0800c249   Thumb Code   190  stm32f30x_can.o(i.CAN_Transmit)
    CAN_service_init                         0x0800c309   Thumb Code    22  canbus.o(i.CAN_service_init)
    CLS2_check_mes                           0x0800c329   Thumb Code    72  utils.o(i.CLS2_check_mes)
    CRC32Software                            0x0800c375   Thumb Code    44  utils.o(i.CRC32Software)
    CRC_8BitsCompute                         0x0800c3a5   Thumb Code    24  utils.o(i.CRC_8BitsCompute)
    DMA1_Channel1_IRQHandler                 0x0800c3cd   Thumb Code    24  power.o(i.DMA1_Channel1_IRQHandler)
    DMA_ClearITPendingBit                    0x0800c3e5   Thumb Code    16  stm32f30x_dma.o(i.DMA_ClearITPendingBit)
    DMA_Cmd                                  0x0800c3fd   Thumb Code    22  stm32f30x_dma.o(i.DMA_Cmd)
    DMA_DeInit                               0x0800c415   Thumb Code   218  stm32f30x_dma.o(i.DMA_DeInit)
    DMA_GetITStatus                          0x0800c4f9   Thumb Code    24  stm32f30x_dma.o(i.DMA_GetITStatus)
    DMA_ITConfig                             0x0800c519   Thumb Code    16  stm32f30x_dma.o(i.DMA_ITConfig)
    DMA_Init                                 0x0800c529   Thumb Code    58  stm32f30x_dma.o(i.DMA_Init)
    DebugMon_Handler                         0x0800c565   Thumb Code     8  stm32f30x_it.o(i.DebugMon_Handler)
    EC21_PW_Reset                            0x0800c581   Thumb Code    70  power.o(i.EC21_PW_Reset)
    ECUJ1587_Data_Request                    0x0800c689   Thumb Code    78  digital.o(i.ECUJ1587_Data_Request)
    EXTI0_IRQHandler                         0x0800c6e1   Thumb Code   106  power.o(i.EXTI0_IRQHandler)
    EXTI15_10_IRQHandler                     0x0800c755   Thumb Code    52  power.o(i.EXTI15_10_IRQHandler)
    EXTI_ClearITPendingBit                   0x0800c78d   Thumb Code    22  stm32f30x_exti.o(i.EXTI_ClearITPendingBit)
    EXTI_GetITStatus                         0x0800c7a9   Thumb Code    32  stm32f30x_exti.o(i.EXTI_GetITStatus)
    EXTI_Init                                0x0800c7cd   Thumb Code   240  stm32f30x_exti.o(i.EXTI_Init)
    FLASH_ClearFlag                          0x0800c8c5   Thumb Code     6  stm32f30x_flash.o(i.FLASH_ClearFlag)
    FLASH_ErasePage                          0x0800c8d1   Thumb Code    54  stm32f30x_flash.o(i.FLASH_ErasePage)
    FLASH_GetStatus                          0x0800c90d   Thumb Code    34  stm32f30x_flash.o(i.FLASH_GetStatus)
    FLASH_Lock                               0x0800c935   Thumb Code    12  stm32f30x_flash.o(i.FLASH_Lock)
    FLASH_ProgramWord                        0x0800c945   Thumb Code    70  stm32f30x_flash.o(i.FLASH_ProgramWord)
    FLASH_ReadBufData                        0x0800c991   Thumb Code    32  flash.o(i.FLASH_ReadBufData)
    FLASH_ReadData                           0x0800c9b1   Thumb Code     4  flash.o(i.FLASH_ReadData)
    FLASH_Unlock                             0x0800c9b5   Thumb Code    18  stm32f30x_flash.o(i.FLASH_Unlock)
    FLASH_WaitForLastOperation               0x0800c9d5   Thumb Code    34  stm32f30x_flash.o(i.FLASH_WaitForLastOperation)
    FLASH_WriteBufData                       0x0800c9f7   Thumb Code    96  flash.o(i.FLASH_WriteBufData)
    FLASH_WriteData                          0x0800ca59   Thumb Code   112  flash.o(i.FLASH_WriteData)
    GPIO_Init                                0x0800cc79   Thumb Code   116  stm32f30x_gpio.o(i.GPIO_Init)
    GPIO_PinAFConfig                         0x0800cda1   Thumb Code    32  stm32f30x_gpio.o(i.GPIO_PinAFConfig)
    GPIO_ReadInputDataBit                    0x0800cdc1   Thumb Code    14  stm32f30x_gpio.o(i.GPIO_ReadInputDataBit)
    GPIO_ResetBits                           0x0800cdcf   Thumb Code     4  stm32f30x_gpio.o(i.GPIO_ResetBits)
    GPIO_SetBits                             0x0800cdd3   Thumb Code     4  stm32f30x_gpio.o(i.GPIO_SetBits)
    HardFault_Handler                        0x0800cdd9   Thumb Code    32  stm32f30x_it.o(i.HardFault_Handler)
    IWDG_ReloadCounter                       0x0800ce15   Thumb Code    10  stm32f30x_iwdg.o(i.IWDG_ReloadCounter)
    Init_Thread                              0x0800cfc5   Thumb Code    30  thread.o(i.Init_Thread)
    Interface_Init                           0x0800cfe5   Thumb Code    72  interface.o(i.Interface_Init)
    J1587HandlerRequest                      0x0800d055   Thumb Code    58  digital.o(i.J1587HandlerRequest)
    J1587ParserPID                           0x0800d091   Thumb Code   658  digital.o(i.J1587ParserPID)
    MemManage_Handler                        0x0800d7f5   Thumb Code     8  stm32f30x_it.o(i.MemManage_Handler)
    NMI_Handler                              0x0800d811   Thumb Code     8  stm32f30x_it.o(i.NMI_Handler)
    NVIC_Init                                0x0800d825   Thumb Code    94  stm32f30x_misc.o(i.NVIC_Init)
    Power_Init                               0x0800da41   Thumb Code   158  power.o(i.Power_Init)
    PrintError                               0x0800daf1   Thumb Code    38  serial.o(i.PrintError)
    RCC_ADCCLKConfig                         0x0800db1d   Thumb Code    28  stm32f30x_rcc.o(i.RCC_ADCCLKConfig)
    RCC_AHBPeriphClockCmd                    0x0800db3d   Thumb Code    18  stm32f30x_rcc.o(i.RCC_AHBPeriphClockCmd)
    RCC_APB1PeriphClockCmd                   0x0800db55   Thumb Code    18  stm32f30x_rcc.o(i.RCC_APB1PeriphClockCmd)
    RCC_APB1PeriphResetCmd                   0x0800db6d   Thumb Code    18  stm32f30x_rcc.o(i.RCC_APB1PeriphResetCmd)
    RCC_APB2PeriphClockCmd                   0x0800db85   Thumb Code    18  stm32f30x_rcc.o(i.RCC_APB2PeriphClockCmd)
    RCC_APB2PeriphResetCmd                   0x0800db9d   Thumb Code    18  stm32f30x_rcc.o(i.RCC_APB2PeriphResetCmd)
    RCC_GetClocksFreq                        0x0800dbb5   Thumb Code   748  stm32f30x_rcc.o(i.RCC_GetClocksFreq)
    SYSCFG_EXTILineConfig                    0x0800deb1   Thumb Code    34  stm32f30x_syscfg.o(i.SYSCFG_EXTILineConfig)
    SerialPushBuffer                         0x0800ded9   Thumb Code    48  serial.o(i.SerialPushBuffer)
    SerialPushBufferWithCS                   0x0800df0d   Thumb Code    30  serial.o(i.SerialPushBufferWithCS)
    SerialPushByte                           0x0800df2d   Thumb Code     8  serial.o(i.SerialPushByte)
    SerialPushStr                            0x0800df39   Thumb Code    96  serial.o(i.SerialPushStr)
    SerialUARTInit                           0x0800df9d   Thumb Code   154  serial.o(i.SerialUARTInit)
    Serial_Init                              0x0800e045   Thumb Code   100  serial.o(i.Serial_Init)
    Serial_Parse                             0x0800e0b1   Thumb Code   532  serial.o(i.Serial_Parse)
    SetECUClearData                          0x0800e399   Thumb Code    78  canbus.o(i.SetECUClearData)
    Set_Led_Status                           0x0800e48d   Thumb Code    28  interface.o(i.Set_Led_Status)
    StoreFaultCode                           0x0800e4ad   Thumb Code    64  canbus.o(i.StoreFaultCode)
    StoreFaultCodeJ1587                      0x0800e4f5   Thumb Code    84  digital.o(i.StoreFaultCodeJ1587)
    SystemInit                               0x0800e551   Thumb Code    88  system_stm32f3xx.o(i.SystemInit)
    TIM3_IRQHandler                          0x0800e5c1   Thumb Code    96  power.o(i.TIM3_IRQHandler)
    TIM4_IRQHandler                          0x0800e629   Thumb Code    36  interface.o(i.TIM4_IRQHandler)
    TIM_ARRPreloadConfig                     0x0800e655   Thumb Code    20  stm32f30x_tim.o(i.TIM_ARRPreloadConfig)
    TIM_ClearITPendingBit                    0x0800e669   Thumb Code     8  stm32f30x_tim.o(i.TIM_ClearITPendingBit)
    TIM_Cmd                                  0x0800e671   Thumb Code    20  stm32f30x_tim.o(i.TIM_Cmd)
    TIM_CtrlPWMOutputs                       0x0800e685   Thumb Code    20  stm32f30x_tim.o(i.TIM_CtrlPWMOutputs)
    TIM_DeInit                               0x0800e699   Thumb Code   198  stm32f30x_tim.o(i.TIM_DeInit)
    TIM_GetITStatus                          0x0800e789   Thumb Code    24  stm32f30x_tim.o(i.TIM_GetITStatus)
    TIM_ITConfig                             0x0800e7a1   Thumb Code    20  stm32f30x_tim.o(i.TIM_ITConfig)
    TIM_OC1Init                              0x0800e7b5   Thumb Code   110  stm32f30x_tim.o(i.TIM_OC1Init)
    TIM_OC1PreloadConfig                     0x0800e83d   Thumb Code    12  stm32f30x_tim.o(i.TIM_OC1PreloadConfig)
    TIM_TimeBaseInit                         0x0800e849   Thumb Code   118  stm32f30x_tim.o(i.TIM_TimeBaseInit)
    TIM_UpdateRequestConfig                  0x0800e8e9   Thumb Code    20  stm32f30x_tim.o(i.TIM_UpdateRequestConfig)
    UART4Init                                0x0800e8fd   Thumb Code   140  digital.o(i.UART4Init)
    UART4PushBuffer                          0x0800e995   Thumb Code    34  digital.o(i.UART4PushBuffer)
    UART4_IRQHandler                         0x0800e9bd   Thumb Code    46  digital.o(i.UART4_IRQHandler)
    UART_SendByte                            0x0800e9f9   Thumb Code    70  serial.o(i.UART_SendByte)
    USART1_IRQHandler                        0x0800ea49   Thumb Code    46  serial.o(i.USART1_IRQHandler)
    USART2Init                               0x0800ea85   Thumb Code   210  digital.o(i.USART2Init)
    USART2PushBuffer                         0x0800eb71   Thumb Code    34  digital.o(i.USART2PushBuffer)
    USART2_IRQHandler                        0x0800eb99   Thumb Code    46  digital.o(i.USART2_IRQHandler)
    USART_Cmd                                0x0800ebd5   Thumb Code    20  stm32f30x_usart.o(i.USART_Cmd)
    USART_DeInit                             0x0800ebe9   Thumb Code    96  stm32f30x_usart.o(i.USART_DeInit)
    USART_GetFlagStatus                      0x0800ec5d   Thumb Code    14  stm32f30x_usart.o(i.USART_GetFlagStatus)
    USART_GetITStatus                        0x0800ec6b   Thumb Code    58  stm32f30x_usart.o(i.USART_GetITStatus)
    USART_ITConfig                           0x0800eca5   Thumb Code    40  stm32f30x_usart.o(i.USART_ITConfig)
    USART_Init                               0x0800eccd   Thumb Code   164  stm32f30x_usart.o(i.USART_Init)
    USART_ReceiveData                        0x0800ed81   Thumb Code     8  stm32f30x_usart.o(i.USART_ReceiveData)
    USART_SendData                           0x0800ed89   Thumb Code     8  stm32f30x_usart.o(i.USART_SendData)
    USART_StructInit                         0x0800ed91   Thumb Code    22  stm32f30x_usart.o(i.USART_StructInit)
    USB_LP_CAN1_RX0_IRQHandler               0x0800eda9   Thumb Code    62  canbus.o(i.USB_LP_CAN1_RX0_IRQHandler)
    UsageFault_Handler                       0x0800edf1   Thumb Code     8  stm32f30x_it.o(i.UsageFault_Handler)
    __hardfp_atof                            0x0800eee1   Thumb Code    44  atof.o(i.__hardfp_atof)
    __read_errno                             0x0800ef19   Thumb Code     6  errno.o(i.__read_errno)
    __scatterload_copy                       0x0800ef25   Thumb Code    14  handlers.o(i.__scatterload_copy)
    __scatterload_null                       0x0800ef33   Thumb Code     2  handlers.o(i.__scatterload_null)
    __scatterload_zeroinit                   0x0800ef35   Thumb Code    14  handlers.o(i.__scatterload_zeroinit)
    __set_errno                              0x0800ef45   Thumb Code     6  errno.o(i.__set_errno)
    _init_box                                0x0800ef51   Thumb Code    70  rt_membox.o(i._init_box)
    _is_digit                                0x0800ef97   Thumb Code    14  scanf_fp.o(i._is_digit)
    cal_sum16_buffer                         0x0800efa5   Thumb Code    24  utils.o(i.cal_sum16_buffer)
    cal_sum_buffer                           0x0800efbd   Thumb Code    24  utils.o(i.cal_sum_buffer)
    dbg_init                                 0x0800efd5   Thumb Code    34  hal_cm.o(i.dbg_init)
    dbg_task_notify                          0x0800f005   Thumb Code    32  hal_cm.o(i.dbg_task_notify)
    dbg_task_switch                          0x0800f025   Thumb Code    16  hal_cm.o(i.dbg_task_switch)
    device_battery_off                       0x0800f035   Thumb Code     6  power.o(i.device_battery_off)
    digital_init                             0x0800f041   Thumb Code   160  digital.o(i.digital_init)
    disable_irqn                             0x0800f0ed   Thumb Code    48  flash.o(i.disable_irqn)
    ec21_power_rst                           0x0800f129   Thumb Code     6  power.o(i.ec21_power_rst)
    enable_irqn                              0x0800f135   Thumb Code    48  flash.o(i.enable_irqn)
    findFaultCode                            0x0800f171   Thumb Code    60  canbus.o(i.findFaultCode)
    findFaultCodeJ1587                       0x0800f1b5   Thumb Code    78  digital.o(i.findFaultCodeJ1587)
    get_buzer_state                          0x0800f399   Thumb Code     6  interface.o(i.get_buzer_state)
    is_buzz_disable                          0x0800f415   Thumb Code    14  interface.o(i.is_buzz_disable)
    isrMessageGet                            0x0800f429   Thumb Code    42  rt_cmsis.o(i.isrMessageGet)
    isrMessagePut                            0x0800f453   Thumb Code    44  rt_cmsis.o(i.isrMessagePut)
    isrSemaphoreRelease                      0x0800f47f   Thumb Code    40  rt_cmsis.o(i.isrSemaphoreRelease)
    isr_mbx_receive                          0x0800f4a9   Thumb Code    86  rt_mailbox.o(i.isr_mbx_receive)
    isr_mbx_send                             0x0800f4ff   Thumb Code    14  rt_mailbox.o(i.isr_mbx_send)
    isr_sem_send                             0x0800f50d   Thumb Code    16  rt_semaphore.o(i.isr_sem_send)
    load_mcu_config                          0x0800f51d   Thumb Code    66  serial.o(i.load_mcu_config)
    main                                     0x0800f579   Thumb Code   106  main.o(i.main)
    osDelay                                  0x0800f5f5   Thumb Code    18  rt_cmsis.o(i.osDelay)
    osKernelInitialize                       0x0800f60d   Thumb Code    30  rt_cmsis.o(i.osKernelInitialize)
    osKernelStart                            0x0800f631   Thumb Code    98  rt_cmsis.o(i.osKernelStart)
    osKernelSysTick                          0x0800f69d   Thumb Code    18  rt_cmsis.o(i.osKernelSysTick)
    osMailAlloc                              0x0800f6b5   Thumb Code    22  rt_cmsis.o(i.osMailAlloc)
    osMailCreate                             0x0800f6d1   Thumb Code    36  rt_cmsis.o(i.osMailCreate)
    osMailFree                               0x0800f6fd   Thumb Code    22  rt_cmsis.o(i.osMailFree)
    osMailGet                                0x0800f719   Thumb Code    22  rt_cmsis.o(i.osMailGet)
    osMailPut                                0x0800f72f   Thumb Code    20  rt_cmsis.o(i.osMailPut)
    osMessageCreate                          0x0800f745   Thumb Code    36  rt_cmsis.o(i.osMessageCreate)
    osMessageGet                             0x0800f771   Thumb Code    18  rt_cmsis.o(i.osMessageGet)
    osMessagePut                             0x0800f789   Thumb Code    18  rt_cmsis.o(i.osMessagePut)
    osSemaphoreCreate                        0x0800f7a1   Thumb Code    36  rt_cmsis.o(i.osSemaphoreCreate)
    osSemaphoreRelease                       0x0800f7cd   Thumb Code    18  rt_cmsis.o(i.osSemaphoreRelease)
    osSemaphoreWait                          0x0800f7e5   Thumb Code    20  rt_cmsis.o(i.osSemaphoreWait)
    osThreadCreate                           0x0800f7fd   Thumb Code    36  rt_cmsis.o(i.osThreadCreate)
    osThreadExit                             0x0800f829   Thumb Code    14  rt_cmsis.o(i.osThreadExit)
    osThreadYield                            0x0800f841   Thumb Code    18  rt_cmsis.o(i.osThreadYield)
    osTimerCall                              0x0800f859   Thumb Code     8  rt_cmsis.o(i.osTimerCall)
    osTimerCreate                            0x0800f865   Thumb Code    36  rt_cmsis.o(i.osTimerCreate)
    osTimerStart                             0x0800f891   Thumb Code    18  rt_cmsis.o(i.osTimerStart)
    osTimerThread                            0x0800f8a9   Thumb Code    38  rt_cmsis.o(i.osTimerThread)
    os_error                                 0x0800f8d5   Thumb Code    38  rtx_conf_cm.o(i.os_error)
    os_idle_demon                            0x0800f94d   Thumb Code     2  rtx_conf_cm.o(i.os_idle_demon)
    os_tick_init                             0x0800f951   Thumb Code    32  rt_system.o(i.os_tick_init)
    os_tick_irqack                           0x0800f979   Thumb Code     2  rt_system.o(i.os_tick_irqack)
    os_tick_ovf                              0x0800f97d   Thumb Code    10  rt_system.o(i.os_tick_ovf)
    os_tick_val                              0x0800f98d   Thumb Code    14  rt_system.o(i.os_tick_val)
    rt_alloc_box                             0x0800f9a1   Thumb Code    26  rt_membox.o(i.rt_alloc_box)
    rt_alloc_mem                             0x0800f9bb   Thumb Code    62  rt_memory.o(i.rt_alloc_mem)
    rt_block                                 0x0800f9f9   Thumb Code    48  rt_task.o(i.rt_block)
    rt_chk_robin                             0x0800fa31   Thumb Code    60  rt_robin.o(i.rt_chk_robin)
    rt_dec_dly                               0x0800fa79   Thumb Code   102  rt_list.o(i.rt_dec_dly)
    rt_dispatch                              0x0800fae9   Thumb Code    60  rt_task.o(i.rt_dispatch)
    rt_dly_wait                              0x0800fb2d   Thumb Code     6  rt_time.o(i.rt_dly_wait)
    rt_evt_psh                               0x0800fb35   Thumb Code    76  rt_event.o(i.rt_evt_psh)
    rt_free_box                              0x0800fb85   Thumb Code    44  rt_membox.o(i.rt_free_box)
    rt_free_mem                              0x0800fbb1   Thumb Code    40  rt_memory.o(i.rt_free_mem)
    rt_get_first                             0x0800fbd9   Thumb Code    40  rt_list.o(i.rt_get_first)
    rt_get_same_rdy_prio                     0x0800fc01   Thumb Code    26  rt_list.o(i.rt_get_same_rdy_prio)
    rt_init_mem                              0x0800fc75   Thumb Code    26  rt_memory.o(i.rt_init_mem)
    rt_init_robin                            0x0800fc91   Thumb Code    14  rt_robin.o(i.rt_init_robin)
    rt_init_stack                            0x0800fca9   Thumb Code   118  hal_cm.o(i.rt_init_stack)
    rt_mbx_check                             0x0800fd29   Thumb Code     8  rt_mailbox.o(i.rt_mbx_check)
    rt_mbx_init                              0x0800fd31   Thumb Code    26  rt_mailbox.o(i.rt_mbx_init)
    rt_mbx_psh                               0x0800fd4d   Thumb Code   236  rt_mailbox.o(i.rt_mbx_psh)
    rt_mbx_send                              0x0800fe3d   Thumb Code   148  rt_mailbox.o(i.rt_mbx_send)
    rt_mbx_wait                              0x0800fed5   Thumb Code   174  rt_mailbox.o(i.rt_mbx_wait)
    rt_pop_req                               0x0800ffcd   Thumb Code   112  rt_system.o(i.rt_pop_req)
    rt_psh_req                               0x08010049   Thumb Code    22  rt_system.o(i.rt_psh_req)
    rt_psq_enq                               0x08010069   Thumb Code    88  rt_list.o(i.rt_psq_enq)
    rt_put_dly                               0x080100c5   Thumb Code    68  rt_list.o(i.rt_put_dly)
    rt_put_prio                              0x0801010d   Thumb Code    54  rt_list.o(i.rt_put_prio)
    rt_put_rdy_first                         0x08010145   Thumb Code    14  rt_list.o(i.rt_put_rdy_first)
    rt_resort_prio                           0x08010159   Thumb Code    46  rt_list.o(i.rt_resort_prio)
    rt_ret_val                               0x0801019d   Thumb Code    12  hal_cm.o(i.rt_ret_val)
    rt_ret_val2                              0x080101a9   Thumb Code    16  hal_cm.o(i.rt_ret_val2)
    rt_rmv_dly                               0x080101b9   Thumb Code    40  rt_list.o(i.rt_rmv_dly)
    rt_rmv_list                              0x080101e1   Thumb Code    44  rt_list.o(i.rt_rmv_list)
    rt_sem_init                              0x08010211   Thumb Code    12  rt_semaphore.o(i.rt_sem_init)
    rt_sem_psh                               0x0801021d   Thumb Code    48  rt_semaphore.o(i.rt_sem_psh)
    rt_sem_send                              0x08010251   Thumb Code    42  rt_semaphore.o(i.rt_sem_send)
    rt_sem_wait                              0x0801027d   Thumb Code    58  rt_semaphore.o(i.rt_sem_wait)
    rt_stk_check                             0x080102bd   Thumb Code    28  rt_system.o(i.rt_stk_check)
    rt_switch_req                            0x080102e1   Thumb Code    30  rt_task.o(i.rt_switch_req)
    rt_sys_init                              0x08010309   Thumb Code   138  rt_task.o(i.rt_sys_init)
    rt_sys_start                             0x080103d5   Thumb Code   110  rt_task.o(i.rt_sys_start)
    rt_systick                               0x0801044d   Thumb Code    50  rt_system.o(i.rt_systick)
    rt_tsk_create                            0x08010511   Thumb Code   118  rt_task.o(i.rt_tsk_create)
    rt_tsk_delete                            0x08010599   Thumb Code   352  rt_task.o(i.rt_tsk_delete)
    rt_tsk_pass                              0x08010715   Thumb Code    38  rt_task.o(i.rt_tsk_pass)
    rt_tsk_prio                              0x08010745   Thumb Code   108  rt_task.o(i.rt_tsk_prio)
    rt_tsk_self                              0x080107c1   Thumb Code    12  rt_task.o(i.rt_tsk_self)
    serial_report_data                       0x080107d1   Thumb Code   400  serial.o(i.serial_report_data)
    str_trim                                 0x0801098d   Thumb Code    46  utils.o(i.str_trim)
    svcDelay                                 0x080109bb   Thumb Code    18  rt_cmsis.o(i.svcDelay)
    svcKernelInitialize                      0x080109cd   Thumb Code    80  rt_cmsis.o(i.svcKernelInitialize)
    svcKernelStart                           0x08010a3d   Thumb Code    62  rt_cmsis.o(i.svcKernelStart)
    svcKernelSysTick                         0x08010a85   Thumb Code    46  rt_cmsis.o(i.svcKernelSysTick)
    svcMailCreate                            0x08010abd   Thumb Code    66  rt_cmsis.o(i.svcMailCreate)
    svcMessageCreate                         0x08010aff   Thumb Code    36  rt_cmsis.o(i.svcMessageCreate)
    svcMessageGet                            0x08010b23   Thumb Code    58  rt_cmsis.o(i.svcMessageGet)
    svcMessagePut                            0x08010b5d   Thumb Code    54  rt_cmsis.o(i.svcMessagePut)
    svcSemaphoreCreate                       0x08010b93   Thumb Code    36  rt_cmsis.o(i.svcSemaphoreCreate)
    svcSemaphoreRelease                      0x08010bb7   Thumb Code    40  rt_cmsis.o(i.svcSemaphoreRelease)
    svcSemaphoreWait                         0x08010bdf   Thumb Code    50  rt_cmsis.o(i.svcSemaphoreWait)
    svcThreadCreate                          0x08010c11   Thumb Code    96  rt_cmsis.o(i.svcThreadCreate)
    svcThreadGetId                           0x08010c7d   Thumb Code    22  rt_cmsis.o(i.svcThreadGetId)
    svcThreadTerminate                       0x08010c99   Thumb Code    50  rt_cmsis.o(i.svcThreadTerminate)
    svcThreadYield                           0x08010cd1   Thumb Code    10  rt_cmsis.o(i.svcThreadYield)
    svcTimerCall                             0x08010cdb   Thumb Code    24  rt_cmsis.o(i.svcTimerCall)
    svcTimerCreate                           0x08010cf5   Thumb Code    52  rt_cmsis.o(i.svcTimerCreate)
    svcTimerStart                            0x08010d2d   Thumb Code    96  rt_cmsis.o(i.svcTimerStart)
    sysMailAlloc                             0x08010d91   Thumb Code    84  rt_cmsis.o(i.sysMailAlloc)
    sysMailFree                              0x08010de9   Thumb Code    96  rt_cmsis.o(i.sysMailFree)
    sysTimerTick                             0x08010e49   Thumb Code    84  rt_cmsis.o(i.sysTimerTick)
    vIRLedTask                               0x08010ea5   Thumb Code   378  power.o(i.vIRLedTask)
    vJ1587HandlerTask                        0x0801103d   Thumb Code   112  digital.o(i.vJ1587HandlerTask)
    vJ1587RequestTask                        0x080110b1   Thumb Code   126  digital.o(i.vJ1587RequestTask)
    vJ1939Task                               0x08011151   Thumb Code   192  canbus.o(i.vJ1939Task)
    vPowerTask                               0x08011221   Thumb Code   430  power.o(i.vPowerTask)
    vSerialReceiver                          0x08011469   Thumb Code   138  serial.o(i.vSerialReceiver)
    vSerialTask                              0x080114fd   Thumb Code   372  serial.o(i.vSerialTask)
    vSerialTransfer                          0x080116a5   Thumb Code    20  serial.o(i.vSerialTransfer)
    vUART4Receiver                           0x080116b9   Thumb Code   164  digital.o(i.vUART4Receiver)
    vUSART2Receiver                          0x08011771   Thumb Code   240  digital.o(i.vUSART2Receiver)
    os_semaphore_def_sSerialFree             0x08011894   Data           4  serial.o(.constdata)
    os_messageQ_def_SerialRxMsgBox           0x08011898   Data           8  serial.o(.constdata)
    os_mailQ_def_SerialPkgMailBox            0x080118a0   Data          12  serial.o(.constdata)
    os_thread_def_vSerialReceiver            0x080118ac   Data          16  serial.o(.constdata)
    os_thread_def_vSerialTransfer            0x080118bc   Data          16  serial.o(.constdata)
    os_thread_def_vSerialTask                0x080118cc   Data          16  serial.o(.constdata)
    os_thread_def_vPowerTask                 0x080118dc   Data          16  power.o(.constdata)
    os_thread_def_vIRLedTask                 0x080118ec   Data          16  power.o(.constdata)
    Crc32Table                               0x080118fc   Data        1024  utils.o(.constdata)
    CRC_Table                                0x08011cfc   Data         256  utils.o(.constdata)
    os_timer_def_FuelTimer                   0x08011dfc   Data           8  digital.o(.constdata)
    os_messageQ_def_UART4RxMsgBox            0x08011e04   Data           8  digital.o(.constdata)
    os_messageQ_def_USART2RxMsgBox           0x08011e0c   Data           8  digital.o(.constdata)
    os_thread_def_vUART4Receiver             0x08011e14   Data          16  digital.o(.constdata)
    os_thread_def_vUSART2Receiver            0x08011e24   Data          16  digital.o(.constdata)
    os_thread_def_vJ1587HandlerTask          0x08011e34   Data          16  digital.o(.constdata)
    os_thread_def_vJ1587RequestTask          0x08011e44   Data          16  digital.o(.constdata)
    os_mailQ_def_J1587PkgMailBox             0x08011e54   Data          12  digital.o(.constdata)
    os_thread_def_vJ1939Task                 0x08011e60   Data          16  canbus.o(.constdata)
    os_timer_def_UserTimer                   0x08011e70   Data           8  interface.o(.constdata)
    os_timer_def_ButtonTimer                 0x08011e78   Data           8  interface.o(.constdata)
    os_maxtaskrun                            0x08011e80   Data           2  rtx_conf_cm.o(.constdata)
    os_stackinfo                             0x08011e84   Data           4  rtx_conf_cm.o(.constdata)
    os_rrobin                                0x08011e88   Data           4  rtx_conf_cm.o(.constdata)
    os_tickus_i                              0x08011e8c   Data           2  rtx_conf_cm.o(.constdata)
    os_tickus_f                              0x08011e8e   Data           2  rtx_conf_cm.o(.constdata)
    os_trv                                   0x08011e90   Data           4  rtx_conf_cm.o(.constdata)
    os_flags                                 0x08011e94   Data           1  rtx_conf_cm.o(.constdata)
    CMSIS_RTOS_API_Version                   0x08011e98   Data           4  rtx_conf_cm.o(.constdata)
    CMSIS_RTOS_RTX_Version                   0x08011e9c   Data           4  rtx_conf_cm.o(.constdata)
    os_clockrate                             0x08011ea0   Data           4  rtx_conf_cm.o(.constdata)
    os_timernum                              0x08011ea4   Data           4  rtx_conf_cm.o(.constdata)
    os_thread_def_main                       0x08011ea8   Data          16  rtx_conf_cm.o(.constdata)
    mp_tcb_size                              0x08011eb8   Data           2  rtx_conf_cm.o(.constdata)
    mp_stk_size                              0x08011ebc   Data           4  rtx_conf_cm.o(.constdata)
    os_stack_sz                              0x08011ec0   Data           4  rtx_conf_cm.o(.constdata)
    os_fifo_size                             0x08011ec4   Data           1  rtx_conf_cm.o(.constdata)
    os_thread_def_osTimerThread              0x08011ec8   Data          16  rtx_conf_cm.o(.constdata)
    os_messageQ_def_osTimerMessageQ          0x08011ed8   Data           8  rtx_conf_cm.o(.constdata)
    mp_tmr_size                              0x08011ee0   Data           2  rtx_conf_cm.o(.constdata)
    __ctype_categories                       0x08011ee2   Data          64  ctype_c.o(.constdata)
    Region$$Table$$Base                      0x08011f70   Number         0  anon$$obj.o(Region$$Table)
    Region$$Table$$Limit                     0x08011f90   Number         0  anon$$obj.o(Region$$Table)
    os_mailQ_p_SerialPkgMailBox              0x20000000   Data           8  serial.o(.data)
    SerialRxBufferIdx                        0x2000000c   Data           2  serial.o(.data)
    time_reset_crash                         0x2000000e   Data           2  serial.o(.data)
    SerialRxMsgBox                           0x20000014   Data           4  serial.o(.data)
    SerialPkgMailBox                         0x20000018   Data           4  serial.o(.data)
    serial_receiver_thread                   0x2000001c   Data           4  serial.o(.data)
    serial_transfer_thread                   0x20000020   Data           4  serial.o(.data)
    serial_thread                            0x20000024   Data           4  serial.o(.data)
    sSerialFree                              0x20000028   Data           4  serial.o(.data)
    ec21_status                              0x2000002c   Data           6  serial.o(.data)
    os_semaphore_cb_sSerialFree              0x20000034   Data           8  serial.o(.data)
    time_check_sensor                        0x2000003c   Data           1  power.o(.data)
    EC21_PW_reboot_time                      0x2000003d   Data           1  power.o(.data)
    Device_BAT_off_time                      0x2000003e   Data           1  power.o(.data)
    flg_pw_in                                0x2000003f   Data           1  power.o(.data)
    flg_pw_h                                 0x20000040   Data           1  power.o(.data)
    flg_pw_l                                 0x20000041   Data           1  power.o(.data)
    rst_condition                            0x20000042   Data           1  power.o(.data)
    counter_ir_1                             0x20000046   Data           2  power.o(.data)
    counter_ir_2                             0x20000048   Data           2  power.o(.data)
    PowerData                                0x2000004a   Data           4  power.o(.data)
    power_thread                             0x20000050   Data           4  power.o(.data)
    IRLed_thread                             0x20000054   Data           4  power.o(.data)
    flg_init_j1587_uart                      0x20000058   Data           1  digital.o(.data)
    f_mid                                    0x20000059   Data           1  digital.o(.data)
    sFaultCodeSizeJ1587                      0x2000005a   Data           1  digital.o(.data)
    UART4RxBufferIdx                         0x20000062   Data           2  digital.o(.data)
    USART2RxBufferIdx                        0x20000064   Data           2  digital.o(.data)
    StepResq                                 0x20000068   Data           4  digital.o(.data)
    UART4RxMsgBox                            0x20000070   Data           4  digital.o(.data)
    USART2RxMsgBox                           0x20000074   Data           4  digital.o(.data)
    uart4_receiver_thread                    0x20000078   Data           4  digital.o(.data)
    USART2_receiver_thread                   0x2000007c   Data           4  digital.o(.data)
    vJ1587HandlerThread                      0x20000080   Data           4  digital.o(.data)
    vJ1587RequestThread                      0x20000084   Data           4  digital.o(.data)
    J1587PkgMailBox                          0x20000088   Data           4  digital.o(.data)
    fuel_232_value                           0x2000008c   Data           8  digital.o(.data)
    os_mailQ_p_J1587PkgMailBox               0x20000094   Data           8  digital.o(.data)
    nSrc                                     0x200000a0   Data           1  canbus.o(.data)
    FMI                                      0x200000a1   Data           1  canbus.o(.data)
    Count                                    0x200000a2   Data           1  canbus.o(.data)
    nPriority                                0x200000a3   Data           1  canbus.o(.data)
    sFaultCodeSize                           0x200000a4   Data           1  canbus.o(.data)
    s_fc_send                                0x200000a5   Data           1  canbus.o(.data)
    iLampStatus                              0x200000a6   Data           1  canbus.o(.data)
    sLampStatus                              0x200000a7   Data           1  canbus.o(.data)
    wLampStatus                              0x200000a8   Data           1  canbus.o(.data)
    pLampStatus                              0x200000a9   Data           1  canbus.o(.data)
    time_disable_obd                         0x200000aa   Data           2  canbus.o(.data)
    PGN                                      0x200000b0   Data           4  canbus.o(.data)
    SPN                                      0x200000b4   Data           4  canbus.o(.data)
    vJ1939ParserThread                       0x200000b8   Data           4  canbus.o(.data)
    d_val                                    0x200000c0   Data           8  canbus.o(.data)
    Ir_test_mode                             0x200000c8   Data           1  interface.o(.data)
    Mode_disable_OBD                         0x200000c9   Data           1  interface.o(.data)
    button_timeout                           0x200000cb   Data           1  interface.o(.data)
    count_of_push                            0x200000cc   Data           1  interface.o(.data)
    active_buzz                              0x200000cd   Data           1  interface.o(.data)
    m_tmr                                    0x20000110   Data           4  rtx_conf_cm.o(.data)
    osThreadId_osTimerThread                 0x20000114   Data           4  rtx_conf_cm.o(.data)
    osMessageQId_osTimerMessageQ             0x20000118   Data           4  rtx_conf_cm.o(.data)
    os_initialized                           0x2000011c   Data           1  rt_cmsis.o(.data)
    os_running                               0x2000011d   Data           1  rt_cmsis.o(.data)
    os_timer_head                            0x20000120   Data           4  rt_cmsis.o(.data)
    os_tsk                                   0x20000124   Data           8  rt_task.o(.data)
    os_tick_irqn                             0x20000130   Data           4  rt_system.o(.data)
    os_time                                  0x20000134   Data           4  rt_time.o(.data)
    dbg_msg                                  0x20000138   Data           1  hal_cm.o(.data)
    os_robin                                 0x2000013c   Data           8  rt_robin.o(.data)
    os_messageQ_q_SerialRxMsgBox             0x20000148   Data        2064  serial.o(.bss)
    os_mailQ_q_SerialPkgMailBox              0x20000958   Data          28  serial.o(.bss)
    ec21_data                                0x20000974   Data          28  serial.o(.bss)
    mcu_config                               0x20000990   Data          20  serial.o(.bss)
    SerialRxBuffer                           0x200009a4   Data         512  serial.o(.bss)
    serial_data_rpt                          0x20000ba4   Data          64  serial.o(.bss)
    serial_buffer                            0x20000be4   Data         512  serial.o(.bss)
    flash_buffer                             0x20000de4   Data         512  serial.o(.bss)
    os_mailQ_m_SerialPkgMailBox              0x20000fe4   Data        1560  serial.o(.bss)
    ADCData                                  0x200015fc   Data          48  power.o(.bss)
    sensorIR                                 0x20001648   Data          10  power.o(.bss)
    os_messageQ_q_UART4RxMsgBox              0x20001760   Data         528  digital.o(.bss)
    os_messageQ_q_USART2RxMsgBox             0x20001970   Data        2064  digital.o(.bss)
    os_mailQ_q_J1587PkgMailBox               0x20002180   Data          36  digital.o(.bss)
    UART4RxBuffer                            0x200021bc   Data         128  digital.o(.bss)
    USART2RxBuffer                           0x2000223c   Data         512  digital.o(.bss)
    fc_j1587                                 0x2000243c   Data          20  digital.o(.bss)
    sFaultCodeJ1587                          0x20002450   Data         320  digital.o(.bss)
    os_mailQ_m_J1587PkgMailBox               0x20002590   Data        2592  digital.o(.bss)
    TxMessage                                0x20002fb0   Data          20  canbus.o(.bss)
    RxMessage                                0x20002fc4   Data          20  canbus.o(.bss)
    canbus                                   0x20002fd8   Data         136  canbus.o(.bss)
    sFaultCodeJ1939                          0x20003060   Data         256  canbus.o(.bss)
    sFaultCodeODB                            0x20003160   Data          32  canbus.o(.bss)
    fc                                       0x20003180   Data          16  canbus.o(.bss)
    os_messageQ_q_osTimerMessageQ            0x200031c0   Data          32  rtx_conf_cm.o(.bss)
    mp_tcb                                   0x200031e0   Data         896  rtx_conf_cm.o(.bss)
    mp_stk                                   0x20003560   Data        7184  rtx_conf_cm.o(.bss)
    os_stack_mem                             0x20005170   Data       10744  rtx_conf_cm.o(.bss)
    os_fifo                                  0x20007b68   Data         516  rtx_conf_cm.o(.bss)
    os_active_TCB                            0x20007d6c   Data          68  rtx_conf_cm.o(.bss)
    os_idle_TCB                              0x20007db0   Data          52  rt_task.o(.bss)
    os_rdy                                   0x20007de4   Data          24  rt_list.o(.bss)
    os_dly                                   0x20007dfc   Data          24  rt_list.o(.bss)
    __initial_sp                             0x20008218   Data           0  startup_stm32f302xc.o(STACK)



==============================================================================

Memory Map of the image

  Image Entry point : 0x0800a189

  Load Region LR_IROM1 (Base: 0x0800a000, Size: 0x000080d8, Max: 0x00040000, ABSOLUTE, COMPRESSED[0x00007fd0])

    Execution Region ER_IROM1 (Exec base: 0x0800a000, Load base: 0x0800a000, Size: 0x00007f90, Max: 0x00040000, ABSOLUTE)

    Exec Addr    Load Addr    Size         Type   Attr      Idx    E Section Name        Object

    0x0800a000   0x0800a000   0x00000188   Data   RO         5725    RESET               startup_stm32f302xc.o
    0x0800a188   0x0800a188   0x00000000   Code   RO         6997  * .ARM.Collect$$$$00000000  mc_w.l(entry.o)
    0x0800a188   0x0800a188   0x00000004   Code   RO         7299    .ARM.Collect$$$$00000001  mc_w.l(entry2.o)
    0x0800a18c   0x0800a18c   0x00000004   Code   RO         7302    .ARM.Collect$$$$00000004  mc_w.l(entry5.o)
    0x0800a190   0x0800a190   0x00000000   Code   RO         7304    .ARM.Collect$$$$00000008  mc_w.l(entry7b.o)
    0x0800a190   0x0800a190   0x00000000   Code   RO         7306    .ARM.Collect$$$$0000000A  mc_w.l(entry8b.o)
    0x0800a190   0x0800a190   0x00000004   Code   RO         7312    .ARM.Collect$$$$0000000E  mc_w.l(entry12b.o)
    0x0800a194   0x0800a194   0x00000000   Code   RO         7307    .ARM.Collect$$$$0000000F  mc_w.l(entry10a.o)
    0x0800a194   0x0800a194   0x00000000   Code   RO         7309    .ARM.Collect$$$$00000011  mc_w.l(entry11a.o)
    0x0800a194   0x0800a194   0x00000018   Code   RO         5656    .ARM.Collect$$$$000000FF  rtx_conf_cm.o
    0x0800a1ac   0x0800a1ac   0x00000004   Code   RO         7300    .ARM.Collect$$$$00002712  mc_w.l(entry2.o)
    0x0800a1b0   0x0800a1b0   0x00000198   Code   RO         6978    .emb_text           RTX_CM4.lib(hal_cm4.o)
    0x0800a348   0x0800a348   0x00000024   Code   RO         5726    .text               startup_stm32f302xc.o
    0x0800a36c   0x0800a36c   0x00000062   Code   RO         7000    .text               mc_w.l(uldiv.o)
    0x0800a3ce   0x0800a3ce   0x00000024   Code   RO         7006    .text               mc_w.l(memcpya.o)
    0x0800a3f2   0x0800a3f2   0x00000024   Code   RO         7008    .text               mc_w.l(memseta.o)
    0x0800a416   0x0800a416   0x0000000e   Code   RO         7012    .text               mc_w.l(strlen.o)
    0x0800a424   0x0800a424   0x0000001e   Code   RO         7014    .text               mc_w.l(strncmp.o)
    0x0800a442   0x0800a442   0x00000002   PAD
    0x0800a444   0x0800a444   0x00000038   Code   RO         7279    .text               mc_w.l(__0sscanf.o)
    0x0800a47c   0x0800a47c   0x0000014c   Code   RO         7281    .text               mc_w.l(_scanf_int.o)
    0x0800a5c8   0x0800a5c8   0x0000014e   Code   RO         7283    .text               mf_w.l(dadd.o)
    0x0800a716   0x0800a716   0x000000e4   Code   RO         7285    .text               mf_w.l(dmul.o)
    0x0800a7fa   0x0800a7fa   0x000000de   Code   RO         7287    .text               mf_w.l(ddiv.o)
    0x0800a8d8   0x0800a8d8   0x00000022   Code   RO         7289    .text               mf_w.l(dflti.o)
    0x0800a8fa   0x0800a8fa   0x0000001a   Code   RO         7291    .text               mf_w.l(dfltui.o)
    0x0800a914   0x0800a914   0x00000032   Code   RO         7293    .text               mf_w.l(dfixui.o)
    0x0800a946   0x0800a946   0x00000002   PAD
    0x0800a948   0x0800a948   0x00000030   Code   RO         7295    .text               mf_w.l(cdcmple.o)
    0x0800a978   0x0800a978   0x00000038   Code   RO         7297    .text               mf_w.l(d2f.o)
    0x0800a9b0   0x0800a9b0   0x0000001e   Code   RO         7318    .text               mc_w.l(llshl.o)
    0x0800a9ce   0x0800a9ce   0x00000020   Code   RO         7320    .text               mc_w.l(llushr.o)
    0x0800a9ee   0x0800a9ee   0x00000024   Code   RO         7322    .text               mc_w.l(llsshr.o)
    0x0800aa12   0x0800aa12   0x0000001c   Code   RO         7331    .text               mc_w.l(_chval.o)
    0x0800aa2e   0x0800aa2e   0x00000002   PAD
    0x0800aa30   0x0800aa30   0x00000028   Code   RO         7333    .text               mc_w.l(scanf_char.o)
    0x0800aa58   0x0800aa58   0x00000040   Code   RO         7335    .text               mc_w.l(_sgetc.o)
    0x0800aa98   0x0800aa98   0x0000009c   Code   RO         7337    .text               mc_w.l(strtod.o)
    0x0800ab34   0x0800ab34   0x00000000   Code   RO         7339    .text               mc_w.l(iusefp.o)
    0x0800ab34   0x0800ab34   0x0000006e   Code   RO         7340    .text               mf_w.l(fepilogue.o)
    0x0800aba2   0x0800aba2   0x000000ba   Code   RO         7342    .text               mf_w.l(depilogue.o)
    0x0800ac5c   0x0800ac5c   0x00000024   Code   RO         7348    .text               mc_w.l(init.o)
    0x0800ac80   0x0800ac80   0x0000000a   Code   RO         7351    .text               mc_w.l(isspace_c.o)
    0x0800ac8a   0x0800ac8a   0x00000002   PAD
    0x0800ac8c   0x0800ac8c   0x00000330   Code   RO         7353    .text               mc_w.l(_scanf.o)
    0x0800afbc   0x0800afbc   0x00000360   Code   RO         7355    .text               mc_w.l(scanf_fp.o)
    0x0800b31c   0x0800b31c   0x00000028   Code   RO         7360    .text               mc_w.l(ctype_c.o)
    0x0800b344   0x0800b344   0x00000018   Code   RO         7363    .text               mf_w.l(dfltul.o)
    0x0800b35c   0x0800b35c   0x00000056   Code   RO         7373    .text               mc_w.l(__dczerorl2.o)
    0x0800b3b2   0x0800b3b2   0x00000002   PAD
    0x0800b3b4   0x0800b3b4   0x00000004   Code   RO         6988    SVC_TABLE           RTX_CM4.lib(svc_table.o)
    0x0800b3b8   0x0800b3b8   0x00000014   Code   RO         1204    i.ADC_Cmd           stm32f30x_adc.o
    0x0800b3cc   0x0800b3cc   0x00000054   Code   RO         1205    i.ADC_CommonInit    stm32f30x_adc.o
    0x0800b420   0x0800b420   0x00000014   Code   RO         1207    i.ADC_DMACmd        stm32f30x_adc.o
    0x0800b434   0x0800b434   0x00000010   Code   RO         1208    i.ADC_DMAConfig     stm32f30x_adc.o
    0x0800b444   0x0800b444   0x0000000e   Code   RO         1214    i.ADC_GetCalibrationStatus  stm32f30x_adc.o
    0x0800b452   0x0800b452   0x0000000e   Code   RO         1220    i.ADC_GetFlagStatus  stm32f30x_adc.o
    0x0800b460   0x0800b460   0x0000003c   Code   RO         1226    i.ADC_Init          stm32f30x_adc.o
    0x0800b49c   0x0800b49c   0x0000018c   Code   RO          358    i.ADC_Initialize    power.o
    0x0800b628   0x0800b628   0x00000074   Code   RO          359    i.ADC_ReadFuelValue  power.o
    0x0800b69c   0x0800b69c   0x000000ac   Code   RO         1231    i.ADC_RegularChannelConfig  stm32f30x_adc.o
    0x0800b748   0x0800b748   0x00000010   Code   RO         1233    i.ADC_SelectCalibrationMode  stm32f30x_adc.o
    0x0800b758   0x0800b758   0x0000000a   Code   RO         1241    i.ADC_StartCalibration  stm32f30x_adc.o
    0x0800b762   0x0800b762   0x0000000a   Code   RO         1242    i.ADC_StartConversion  stm32f30x_adc.o
    0x0800b76c   0x0800b76c   0x00000016   Code   RO         1246    i.ADC_StructInit    stm32f30x_adc.o
    0x0800b782   0x0800b782   0x0000001c   Code   RO         1247    i.ADC_TempSensorCmd  stm32f30x_adc.o
    0x0800b79e   0x0800b79e   0x0000001c   Code   RO         1249    i.ADC_VoltageRegulatorCmd  stm32f30x_adc.o
    0x0800b7ba   0x0800b7ba   0x00000002   PAD
    0x0800b7bc   0x0800b7bc   0x00000060   Code   RO          360    i.ADC_fillter_values  power.o
    0x0800b81c   0x0800b81c   0x0000002e   Code   RO          509    i.ArraySort         utils.o
    0x0800b84a   0x0800b84a   0x00000002   PAD
    0x0800b84c   0x0800b84c   0x00000060   Code   RO          361    i.BAT_fillter_values  power.o
    0x0800b8ac   0x0800b8ac   0x000003aa   Code   RO          362    i.BlinkIRLed        power.o
    0x0800bc56   0x0800bc56   0x00000002   PAD
    0x0800bc58   0x0800bc58   0x0000001c   Code   RO         1059    i.BusFault_Handler  stm32f30x_it.o
    0x0800bc74   0x0800bc74   0x000000a8   Code   RO          931    i.ButtonTimerHanler  interface.o
    0x0800bd1c   0x0800bd1c   0x00000048   Code   RO          932    i.Buzz_Off          interface.o
    0x0800bd64   0x0800bd64   0x00000034   Code   RO          933    i.Buzz_On           interface.o
    0x0800bd98   0x0800bd98   0x00000078   Code   RO         1586    i.CAN_ClearITPendingBit  stm32f30x_can.o
    0x0800be10   0x0800be10   0x000000fc   Code   RO          821    i.CAN_Config        canbus.o
    0x0800bf0c   0x0800bf0c   0x00000018   Code   RO         1588    i.CAN_DeInit        stm32f30x_can.o
    0x0800bf24   0x0800bf24   0x000000cc   Code   RO         1590    i.CAN_FilterInit    stm32f30x_can.o
    0x0800bff0   0x0800bff0   0x000000a8   Code   RO         1592    i.CAN_GetITStatus   stm32f30x_can.o
    0x0800c098   0x0800c098   0x00000010   Code   RO         1596    i.CAN_ITConfig      stm32f30x_can.o
    0x0800c0a8   0x0800c0a8   0x000000f2   Code   RO         1597    i.CAN_Init          stm32f30x_can.o
    0x0800c19a   0x0800c19a   0x0000008e   Code   RO         1600    i.CAN_Receive       stm32f30x_can.o
    0x0800c228   0x0800c228   0x00000020   Code   RO         1603    i.CAN_StructInit    stm32f30x_can.o
    0x0800c248   0x0800c248   0x000000be   Code   RO         1605    i.CAN_Transmit      stm32f30x_can.o
    0x0800c306   0x0800c306   0x00000002   PAD
    0x0800c308   0x0800c308   0x00000020   Code   RO          822    i.CAN_service_init  canbus.o
    0x0800c328   0x0800c328   0x0000004c   Code   RO          510    i.CLS2_check_mes    utils.o
    0x0800c374   0x0800c374   0x00000030   Code   RO          511    i.CRC32Software     utils.o
    0x0800c3a4   0x0800c3a4   0x0000001c   Code   RO          512    i.CRC_8BitsCompute  utils.o
    0x0800c3c0   0x0800c3c0   0x0000000c   Code   RO         1608    i.CheckITStatus     stm32f30x_can.o
    0x0800c3cc   0x0800c3cc   0x00000018   Code   RO          363    i.DMA1_Channel1_IRQHandler  power.o
    0x0800c3e4   0x0800c3e4   0x00000018   Code   RO         2088    i.DMA_ClearITPendingBit  stm32f30x_dma.o
    0x0800c3fc   0x0800c3fc   0x00000016   Code   RO         2089    i.DMA_Cmd           stm32f30x_dma.o
    0x0800c412   0x0800c412   0x00000002   PAD
    0x0800c414   0x0800c414   0x000000e4   Code   RO         2090    i.DMA_DeInit        stm32f30x_dma.o
    0x0800c4f8   0x0800c4f8   0x00000020   Code   RO         2093    i.DMA_GetITStatus   stm32f30x_dma.o
    0x0800c518   0x0800c518   0x00000010   Code   RO         2094    i.DMA_ITConfig      stm32f30x_dma.o
    0x0800c528   0x0800c528   0x0000003a   Code   RO         2095    i.DMA_Init          stm32f30x_dma.o
    0x0800c562   0x0800c562   0x00000002   PAD
    0x0800c564   0x0800c564   0x0000001c   Code   RO         1060    i.DebugMon_Handler  stm32f30x_it.o
    0x0800c580   0x0800c580   0x00000050   Code   RO          364    i.EC21_PW_Reset     power.o
    0x0800c5d0   0x0800c5d0   0x000000b8   Code   RO          216    i.EC21_data_parser  serial.o
    0x0800c688   0x0800c688   0x00000058   Code   RO          675    i.ECUJ1587_Data_Request  digital.o
    0x0800c6e0   0x0800c6e0   0x00000074   Code   RO          365    i.EXTI0_IRQHandler  power.o
    0x0800c754   0x0800c754   0x00000038   Code   RO          366    i.EXTI15_10_IRQHandler  power.o
    0x0800c78c   0x0800c78c   0x0000001c   Code   RO         2172    i.EXTI_ClearITPendingBit  stm32f30x_exti.o
    0x0800c7a8   0x0800c7a8   0x00000024   Code   RO         2176    i.EXTI_GetITStatus  stm32f30x_exti.o
    0x0800c7cc   0x0800c7cc   0x000000f8   Code   RO         2177    i.EXTI_Init         stm32f30x_exti.o
    0x0800c8c4   0x0800c8c4   0x0000000c   Code   RO         2237    i.FLASH_ClearFlag   stm32f30x_flash.o
    0x0800c8d0   0x0800c8d0   0x0000003c   Code   RO         2239    i.FLASH_ErasePage   stm32f30x_flash.o
    0x0800c90c   0x0800c90c   0x00000028   Code   RO         2241    i.FLASH_GetStatus   stm32f30x_flash.o
    0x0800c934   0x0800c934   0x00000010   Code   RO         2244    i.FLASH_Lock        stm32f30x_flash.o
    0x0800c944   0x0800c944   0x0000004c   Code   RO         2262    i.FLASH_ProgramWord  stm32f30x_flash.o
    0x0800c990   0x0800c990   0x00000020   Code   RO         1120    i.FLASH_ReadBufData  flash.o
    0x0800c9b0   0x0800c9b0   0x00000004   Code   RO         1121    i.FLASH_ReadData    flash.o
    0x0800c9b4   0x0800c9b4   0x00000020   Code   RO         2264    i.FLASH_Unlock      stm32f30x_flash.o
    0x0800c9d4   0x0800c9d4   0x00000022   Code   RO         2265    i.FLASH_WaitForLastOperation  stm32f30x_flash.o
    0x0800c9f6   0x0800c9f6   0x00000060   Code   RO         1122    i.FLASH_WriteBufData  flash.o
    0x0800ca56   0x0800ca56   0x00000002   PAD
    0x0800ca58   0x0800ca58   0x00000078   Code   RO         1123    i.FLASH_WriteData   flash.o
    0x0800cad0   0x0800cad0   0x00000060   Code   RO          367    i.FuelCyclesConfig  power.o
    0x0800cb30   0x0800cb30   0x0000003c   Code   RO          676    i.FuelTimeoutHanler  digital.o
    0x0800cb6c   0x0800cb6c   0x0000010c   Code   RO          677    i.Fuel_232_parse    digital.o
    0x0800cc78   0x0800cc78   0x00000074   Code   RO         2564    i.GPIO_Init         stm32f30x_gpio.o
    0x0800ccec   0x0800ccec   0x000000b4   Code   RO          934    i.GPIO_Initialize   interface.o
    0x0800cda0   0x0800cda0   0x00000020   Code   RO         2565    i.GPIO_PinAFConfig  stm32f30x_gpio.o
    0x0800cdc0   0x0800cdc0   0x0000000e   Code   RO         2568    i.GPIO_ReadInputDataBit  stm32f30x_gpio.o
    0x0800cdce   0x0800cdce   0x00000004   Code   RO         2571    i.GPIO_ResetBits    stm32f30x_gpio.o
    0x0800cdd2   0x0800cdd2   0x00000004   Code   RO         2572    i.GPIO_SetBits      stm32f30x_gpio.o
    0x0800cdd6   0x0800cdd6   0x00000002   PAD
    0x0800cdd8   0x0800cdd8   0x0000003c   Code   RO         1061    i.HardFault_Handler  stm32f30x_it.o
    0x0800ce14   0x0800ce14   0x00000010   Code   RO         3391    i.IWDG_ReloadCounter  stm32f30x_iwdg.o
    0x0800ce24   0x0800ce24   0x000000ae   Code   RO          368    i.InitPWM           power.o
    0x0800ced2   0x0800ced2   0x00000002   PAD
    0x0800ced4   0x0800ced4   0x000000f0   Code   RO          369    i.InitVS1838B       power.o
    0x0800cfc4   0x0800cfc4   0x0000001e   Code   RO          189    i.Init_Thread       thread.o
    0x0800cfe2   0x0800cfe2   0x00000002   PAD
    0x0800cfe4   0x0800cfe4   0x00000070   Code   RO          937    i.Interface_Init    interface.o
    0x0800d054   0x0800d054   0x0000003a   Code   RO          678    i.J1587HandlerRequest  digital.o
    0x0800d08e   0x0800d08e   0x00000002   PAD
    0x0800d090   0x0800d090   0x000002d0   Code   RO          679    i.J1587ParserPID    digital.o
    0x0800d360   0x0800d360   0x0000028c   Code   RO          824    i.J1939Handler      canbus.o
    0x0800d5ec   0x0800d5ec   0x000001b8   Code   RO          938    i.LedAndBuzzerControl  interface.o
    0x0800d7a4   0x0800d7a4   0x00000028   Code   RO          939    i.Led_Off           interface.o
    0x0800d7cc   0x0800d7cc   0x00000028   Code   RO          940    i.Led_On            interface.o
    0x0800d7f4   0x0800d7f4   0x0000001c   Code   RO         1062    i.MemManage_Handler  stm32f30x_it.o
    0x0800d810   0x0800d810   0x00000014   Code   RO         1063    i.NMI_Handler       stm32f30x_it.o
    0x0800d824   0x0800d824   0x00000064   Code   RO         3449    i.NVIC_Init         stm32f30x_misc.o
    0x0800d888   0x0800d888   0x00000108   Code   RO          825    i.ODBIIHandler      canbus.o
    0x0800d990   0x0800d990   0x000000b0   Code   RO          370    i.PW_Control_init   power.o
    0x0800da40   0x0800da40   0x000000b0   Code   RO          371    i.Power_Init        power.o
    0x0800daf0   0x0800daf0   0x0000002c   Code   RO          217    i.PrintError        serial.o
    0x0800db1c   0x0800db1c   0x00000020   Code   RO         3683    i.RCC_ADCCLKConfig  stm32f30x_rcc.o
    0x0800db3c   0x0800db3c   0x00000018   Code   RO         3684    i.RCC_AHBPeriphClockCmd  stm32f30x_rcc.o
    0x0800db54   0x0800db54   0x00000018   Code   RO         3686    i.RCC_APB1PeriphClockCmd  stm32f30x_rcc.o
    0x0800db6c   0x0800db6c   0x00000018   Code   RO         3687    i.RCC_APB1PeriphResetCmd  stm32f30x_rcc.o
    0x0800db84   0x0800db84   0x00000018   Code   RO         3688    i.RCC_APB2PeriphClockCmd  stm32f30x_rcc.o
    0x0800db9c   0x0800db9c   0x00000018   Code   RO         3689    i.RCC_APB2PeriphResetCmd  stm32f30x_rcc.o
    0x0800dbb4   0x0800dbb4   0x000002fc   Code   RO         3696    i.RCC_GetClocksFreq  stm32f30x_rcc.o
    0x0800deb0   0x0800deb0   0x00000028   Code   RO         4493    i.SYSCFG_EXTILineConfig  stm32f30x_syscfg.o
    0x0800ded8   0x0800ded8   0x00000034   Code   RO          218    i.SerialPushBuffer  serial.o
    0x0800df0c   0x0800df0c   0x0000001e   Code   RO          219    i.SerialPushBufferWithCS  serial.o
    0x0800df2a   0x0800df2a   0x00000002   PAD
    0x0800df2c   0x0800df2c   0x0000000c   Code   RO          220    i.SerialPushByte    serial.o
    0x0800df38   0x0800df38   0x00000064   Code   RO          221    i.SerialPushStr     serial.o
    0x0800df9c   0x0800df9c   0x000000a8   Code   RO          222    i.SerialUARTInit    serial.o
    0x0800e044   0x0800e044   0x0000006c   Code   RO          223    i.Serial_Init       serial.o
    0x0800e0b0   0x0800e0b0   0x000002c4   Code   RO          224    i.Serial_Parse      serial.o
    0x0800e374   0x0800e374   0x00000024   Code   RO          225    i.SerialrxBufferPush  serial.o
    0x0800e398   0x0800e398   0x00000060   Code   RO          826    i.SetECUClearData   canbus.o
    0x0800e3f8   0x0800e3f8   0x00000094   Code   RO         5733    i.SetSysClock       system_stm32f3xx.o
    0x0800e48c   0x0800e48c   0x00000020   Code   RO          941    i.Set_Led_Status    interface.o
    0x0800e4ac   0x0800e4ac   0x00000048   Code   RO          827    i.StoreFaultCode    canbus.o
    0x0800e4f4   0x0800e4f4   0x0000005c   Code   RO          680    i.StoreFaultCodeJ1587  digital.o
    0x0800e550   0x0800e550   0x00000070   Code   RO         5735    i.SystemInit        system_stm32f3xx.o
    0x0800e5c0   0x0800e5c0   0x00000068   Code   RO          372    i.TIM3_IRQHandler   power.o
    0x0800e628   0x0800e628   0x0000002c   Code   RO          942    i.TIM4_IRQHandler   interface.o
    0x0800e654   0x0800e654   0x00000014   Code   RO         4597    i.TIM_ARRPreloadConfig  stm32f30x_tim.o
    0x0800e668   0x0800e668   0x00000008   Code   RO         4608    i.TIM_ClearITPendingBit  stm32f30x_tim.o
    0x0800e670   0x0800e670   0x00000014   Code   RO         4615    i.TIM_Cmd           stm32f30x_tim.o
    0x0800e684   0x0800e684   0x00000014   Code   RO         4617    i.TIM_CtrlPWMOutputs  stm32f30x_tim.o
    0x0800e698   0x0800e698   0x000000f0   Code   RO         4620    i.TIM_DeInit        stm32f30x_tim.o
    0x0800e788   0x0800e788   0x00000018   Code   RO         4638    i.TIM_GetITStatus   stm32f30x_tim.o
    0x0800e7a0   0x0800e7a0   0x00000014   Code   RO         4642    i.TIM_ITConfig      stm32f30x_tim.o
    0x0800e7b4   0x0800e7b4   0x00000088   Code   RO         4646    i.TIM_OC1Init       stm32f30x_tim.o
    0x0800e83c   0x0800e83c   0x0000000c   Code   RO         4649    i.TIM_OC1PreloadConfig  stm32f30x_tim.o
    0x0800e848   0x0800e848   0x000000a0   Code   RO         4702    i.TIM_TimeBaseInit  stm32f30x_tim.o
    0x0800e8e8   0x0800e8e8   0x00000014   Code   RO         4706    i.TIM_UpdateRequestConfig  stm32f30x_tim.o
    0x0800e8fc   0x0800e8fc   0x00000098   Code   RO          681    i.UART4Init         digital.o
    0x0800e994   0x0800e994   0x00000028   Code   RO          682    i.UART4PushBuffer   digital.o
    0x0800e9bc   0x0800e9bc   0x0000003c   Code   RO          683    i.UART4_IRQHandler  digital.o
    0x0800e9f8   0x0800e9f8   0x00000050   Code   RO          226    i.UART_SendByte     serial.o
    0x0800ea48   0x0800ea48   0x0000003c   Code   RO          227    i.USART1_IRQHandler  serial.o
    0x0800ea84   0x0800ea84   0x000000ec   Code   RO          684    i.USART2Init        digital.o
    0x0800eb70   0x0800eb70   0x00000028   Code   RO          685    i.USART2PushBuffer  digital.o
    0x0800eb98   0x0800eb98   0x0000003c   Code   RO          686    i.USART2_IRQHandler  digital.o
    0x0800ebd4   0x0800ebd4   0x00000014   Code   RO         5285    i.USART_Cmd         stm32f30x_usart.o
    0x0800ebe8   0x0800ebe8   0x00000074   Code   RO         5291    i.USART_DeInit      stm32f30x_usart.o
    0x0800ec5c   0x0800ec5c   0x0000000e   Code   RO         5293    i.USART_GetFlagStatus  stm32f30x_usart.o
    0x0800ec6a   0x0800ec6a   0x0000003a   Code   RO         5294    i.USART_GetITStatus  stm32f30x_usart.o
    0x0800eca4   0x0800eca4   0x00000028   Code   RO         5296    i.USART_ITConfig    stm32f30x_usart.o
    0x0800eccc   0x0800eccc   0x000000b4   Code   RO         5297    i.USART_Init        stm32f30x_usart.o
    0x0800ed80   0x0800ed80   0x00000008   Code   RO         5309    i.USART_ReceiveData  stm32f30x_usart.o
    0x0800ed88   0x0800ed88   0x00000008   Code   RO         5314    i.USART_SendData    stm32f30x_usart.o
    0x0800ed90   0x0800ed90   0x00000016   Code   RO         5326    i.USART_StructInit  stm32f30x_usart.o
    0x0800eda6   0x0800eda6   0x00000002   PAD
    0x0800eda8   0x0800eda8   0x00000048   Code   RO          829    i.USB_LP_CAN1_RX0_IRQHandler  canbus.o
    0x0800edf0   0x0800edf0   0x0000001c   Code   RO         1064    i.UsageFault_Handler  stm32f30x_it.o
    0x0800ee0c   0x0800ee0c   0x00000004   Code   RO          943    i.UserTimerHanler   interface.o
    0x0800ee10   0x0800ee10   0x00000028   Code   RO          944    i.UserTimer_Init    interface.o
    0x0800ee38   0x0800ee38   0x00000038   Code   RO          830    i.VF_Send_Request   canbus.o
    0x0800ee70   0x0800ee70   0x00000022   Code   RO         1124    i.__NVIC_DisableIRQ  flash.o
    0x0800ee92   0x0800ee92   0x0000001a   Code   RO          373    i.__NVIC_EnableIRQ  power.o
    0x0800eeac   0x0800eeac   0x0000001a   Code   RO          687    i.__NVIC_EnableIRQ  digital.o
    0x0800eec6   0x0800eec6   0x0000001a   Code   RO         1125    i.__NVIC_EnableIRQ  flash.o
    0x0800eee0   0x0800eee0   0x00000038   Code   RO         6991    i.__hardfp_atof     m_wm.l(atof.o)
    0x0800ef18   0x0800ef18   0x0000000c   Code   RO         7325    i.__read_errno      mc_w.l(errno.o)
    0x0800ef24   0x0800ef24   0x0000000e   Code   RO         7367    i.__scatterload_copy  mc_w.l(handlers.o)
    0x0800ef32   0x0800ef32   0x00000002   Code   RO         7368    i.__scatterload_null  mc_w.l(handlers.o)
    0x0800ef34   0x0800ef34   0x0000000e   Code   RO         7369    i.__scatterload_zeroinit  mc_w.l(handlers.o)
    0x0800ef42   0x0800ef42   0x00000002   PAD
    0x0800ef44   0x0800ef44   0x0000000c   Code   RO         7326    i.__set_errno       mc_w.l(errno.o)
    0x0800ef50   0x0800ef50   0x00000046   Code   RO         6851    i._init_box         RTX_CM4.lib(rt_membox.o)
    0x0800ef96   0x0800ef96   0x0000000e   Code   RO         7357    i._is_digit         mc_w.l(scanf_fp.o)
    0x0800efa4   0x0800efa4   0x00000018   Code   RO          515    i.cal_sum16_buffer  utils.o
    0x0800efbc   0x0800efbc   0x00000018   Code   RO          516    i.cal_sum_buffer    utils.o
    0x0800efd4   0x0800efd4   0x00000030   Code   RO         6904    i.dbg_init          RTX_CM4.lib(hal_cm.o)
    0x0800f004   0x0800f004   0x00000020   Code   RO         6905    i.dbg_task_notify   RTX_CM4.lib(hal_cm.o)
    0x0800f024   0x0800f024   0x00000010   Code   RO         6906    i.dbg_task_switch   RTX_CM4.lib(hal_cm.o)
    0x0800f034   0x0800f034   0x0000000c   Code   RO          374    i.device_battery_off  power.o
    0x0800f040   0x0800f040   0x000000ac   Code   RO          688    i.digital_init      digital.o
    0x0800f0ec   0x0800f0ec   0x0000003c   Code   RO         1126    i.disable_irqn      flash.o
    0x0800f128   0x0800f128   0x0000000c   Code   RO          375    i.ec21_power_rst    power.o
    0x0800f134   0x0800f134   0x0000003c   Code   RO         1127    i.enable_irqn       flash.o
    0x0800f170   0x0800f170   0x00000044   Code   RO          831    i.findFaultCode     canbus.o
    0x0800f1b4   0x0800f1b4   0x00000058   Code   RO          689    i.findFaultCodeJ1587  digital.o
    0x0800f20c   0x0800f20c   0x0000018c   Code   RO          376    i.get_adc_values    power.o
    0x0800f398   0x0800f398   0x0000000c   Code   RO          945    i.get_buzer_state   interface.o
    0x0800f3a4   0x0800f3a4   0x00000070   Code   RO          946    i.irqTimer_Init     interface.o
    0x0800f414   0x0800f414   0x00000014   Code   RO          947    i.is_buzz_disable   interface.o
    0x0800f428   0x0800f428   0x0000002a   Code   RO         5778    i.isrMessageGet     RTX_CM4.lib(rt_cmsis.o)
    0x0800f452   0x0800f452   0x0000002c   Code   RO         5779    i.isrMessagePut     RTX_CM4.lib(rt_cmsis.o)
    0x0800f47e   0x0800f47e   0x00000028   Code   RO         5780    i.isrSemaphoreRelease  RTX_CM4.lib(rt_cmsis.o)
    0x0800f4a6   0x0800f4a6   0x00000002   PAD
    0x0800f4a8   0x0800f4a8   0x00000056   Code   RO         6697    i.isr_mbx_receive   RTX_CM4.lib(rt_mailbox.o)
    0x0800f4fe   0x0800f4fe   0x0000000e   Code   RO         6698    i.isr_mbx_send      RTX_CM4.lib(rt_mailbox.o)
    0x0800f50c   0x0800f50c   0x00000010   Code   RO         6745    i.isr_sem_send      RTX_CM4.lib(rt_semaphore.o)
    0x0800f51c   0x0800f51c   0x0000005c   Code   RO          228    i.load_mcu_config   serial.o
    0x0800f578   0x0800f578   0x0000007c   Code   RO            5    i.main              main.o
    0x0800f5f4   0x0800f5f4   0x00000018   Code   RO         5782    i.osDelay           RTX_CM4.lib(rt_cmsis.o)
    0x0800f60c   0x0800f60c   0x00000024   Code   RO         5783    i.osKernelInitialize  RTX_CM4.lib(rt_cmsis.o)
    0x0800f630   0x0800f630   0x0000006c   Code   RO         5785    i.osKernelStart     RTX_CM4.lib(rt_cmsis.o)
    0x0800f69c   0x0800f69c   0x00000018   Code   RO         5786    i.osKernelSysTick   RTX_CM4.lib(rt_cmsis.o)
    0x0800f6b4   0x0800f6b4   0x0000001c   Code   RO         5787    i.osMailAlloc       RTX_CM4.lib(rt_cmsis.o)
    0x0800f6d0   0x0800f6d0   0x0000002c   Code   RO         5789    i.osMailCreate      RTX_CM4.lib(rt_cmsis.o)
    0x0800f6fc   0x0800f6fc   0x0000001c   Code   RO         5790    i.osMailFree        RTX_CM4.lib(rt_cmsis.o)
    0x0800f718   0x0800f718   0x00000016   Code   RO         5791    i.osMailGet         RTX_CM4.lib(rt_cmsis.o)
    0x0800f72e   0x0800f72e   0x00000014   Code   RO         5792    i.osMailPut         RTX_CM4.lib(rt_cmsis.o)
    0x0800f742   0x0800f742   0x00000002   PAD
    0x0800f744   0x0800f744   0x0000002c   Code   RO         5793    i.osMessageCreate   RTX_CM4.lib(rt_cmsis.o)
    0x0800f770   0x0800f770   0x00000018   Code   RO         5794    i.osMessageGet      RTX_CM4.lib(rt_cmsis.o)
    0x0800f788   0x0800f788   0x00000018   Code   RO         5795    i.osMessagePut      RTX_CM4.lib(rt_cmsis.o)
    0x0800f7a0   0x0800f7a0   0x0000002c   Code   RO         5804    i.osSemaphoreCreate  RTX_CM4.lib(rt_cmsis.o)
    0x0800f7cc   0x0800f7cc   0x00000018   Code   RO         5806    i.osSemaphoreRelease  RTX_CM4.lib(rt_cmsis.o)
    0x0800f7e4   0x0800f7e4   0x00000018   Code   RO         5807    i.osSemaphoreWait   RTX_CM4.lib(rt_cmsis.o)
    0x0800f7fc   0x0800f7fc   0x0000002c   Code   RO         5811    i.osThreadCreate    RTX_CM4.lib(rt_cmsis.o)
    0x0800f828   0x0800f828   0x00000018   Code   RO         5812    i.osThreadExit      RTX_CM4.lib(rt_cmsis.o)
    0x0800f840   0x0800f840   0x00000018   Code   RO         5817    i.osThreadYield     RTX_CM4.lib(rt_cmsis.o)
    0x0800f858   0x0800f858   0x0000000c   Code   RO         5818    i.osTimerCall       RTX_CM4.lib(rt_cmsis.o)
    0x0800f864   0x0800f864   0x0000002c   Code   RO         5819    i.osTimerCreate     RTX_CM4.lib(rt_cmsis.o)
    0x0800f890   0x0800f890   0x00000018   Code   RO         5821    i.osTimerStart      RTX_CM4.lib(rt_cmsis.o)
    0x0800f8a8   0x0800f8a8   0x0000002c   Code   RO         5823    i.osTimerThread     RTX_CM4.lib(rt_cmsis.o)
    0x0800f8d4   0x0800f8d4   0x00000078   Code   RO         5657    i.os_error          rtx_conf_cm.o
    0x0800f94c   0x0800f94c   0x00000002   Code   RO         5658    i.os_idle_demon     rtx_conf_cm.o
    0x0800f94e   0x0800f94e   0x00000002   PAD
    0x0800f950   0x0800f950   0x00000028   Code   RO         6485    i.os_tick_init      RTX_CM4.lib(rt_system.o)
    0x0800f978   0x0800f978   0x00000002   Code   RO         6486    i.os_tick_irqack    RTX_CM4.lib(rt_system.o)
    0x0800f97a   0x0800f97a   0x00000002   PAD
    0x0800f97c   0x0800f97c   0x00000010   Code   RO         6487    i.os_tick_ovf       RTX_CM4.lib(rt_system.o)
    0x0800f98c   0x0800f98c   0x00000014   Code   RO         6488    i.os_tick_val       RTX_CM4.lib(rt_system.o)
    0x0800f9a0   0x0800f9a0   0x0000001a   Code   RO         6852    i.rt_alloc_box      RTX_CM4.lib(rt_membox.o)
    0x0800f9ba   0x0800f9ba   0x0000003e   Code   RO         6880    i.rt_alloc_mem      RTX_CM4.lib(rt_memory.o)
    0x0800f9f8   0x0800f9f8   0x00000038   Code   RO         6400    i.rt_block          RTX_CM4.lib(rt_task.o)
    0x0800fa30   0x0800fa30   0x00000048   Code   RO         6957    i.rt_chk_robin      RTX_CM4.lib(rt_robin.o)
    0x0800fa78   0x0800fa78   0x00000070   Code   RO         6621    i.rt_dec_dly        RTX_CM4.lib(rt_list.o)
    0x0800fae8   0x0800fae8   0x00000044   Code   RO         6401    i.rt_dispatch       RTX_CM4.lib(rt_task.o)
    0x0800fb2c   0x0800fb2c   0x00000006   Code   RO         6787    i.rt_dly_wait       RTX_CM4.lib(rt_time.o)
    0x0800fb32   0x0800fb32   0x00000002   PAD
    0x0800fb34   0x0800fb34   0x00000050   Code   RO         6578    i.rt_evt_psh        RTX_CM4.lib(rt_event.o)
    0x0800fb84   0x0800fb84   0x0000002c   Code   RO         6853    i.rt_free_box       RTX_CM4.lib(rt_membox.o)
    0x0800fbb0   0x0800fbb0   0x00000028   Code   RO         6881    i.rt_free_mem       RTX_CM4.lib(rt_memory.o)
    0x0800fbd8   0x0800fbd8   0x00000028   Code   RO         6622    i.rt_get_first      RTX_CM4.lib(rt_list.o)
    0x0800fc00   0x0800fc00   0x00000024   Code   RO         6623    i.rt_get_same_rdy_prio  RTX_CM4.lib(rt_list.o)
    0x0800fc24   0x0800fc24   0x00000008   Code   RO         5828    i.rt_id2obj         RTX_CM4.lib(rt_cmsis.o)
    0x0800fc2c   0x0800fc2c   0x00000048   Code   RO         6402    i.rt_init_context   RTX_CM4.lib(rt_task.o)
    0x0800fc74   0x0800fc74   0x0000001a   Code   RO         6882    i.rt_init_mem       RTX_CM4.lib(rt_memory.o)
    0x0800fc8e   0x0800fc8e   0x00000002   PAD
    0x0800fc90   0x0800fc90   0x00000018   Code   RO         6958    i.rt_init_robin     RTX_CM4.lib(rt_robin.o)
    0x0800fca8   0x0800fca8   0x00000080   Code   RO         6907    i.rt_init_stack     RTX_CM4.lib(hal_cm.o)
    0x0800fd28   0x0800fd28   0x00000008   Code   RO         6699    i.rt_mbx_check      RTX_CM4.lib(rt_mailbox.o)
    0x0800fd30   0x0800fd30   0x0000001a   Code   RO         6700    i.rt_mbx_init       RTX_CM4.lib(rt_mailbox.o)
    0x0800fd4a   0x0800fd4a   0x00000002   PAD
    0x0800fd4c   0x0800fd4c   0x000000f0   Code   RO         6701    i.rt_mbx_psh        RTX_CM4.lib(rt_mailbox.o)
    0x0800fe3c   0x0800fe3c   0x00000098   Code   RO         6702    i.rt_mbx_send       RTX_CM4.lib(rt_mailbox.o)
    0x0800fed4   0x0800fed4   0x000000b4   Code   RO         6703    i.rt_mbx_wait       RTX_CM4.lib(rt_mailbox.o)
    0x0800ff88   0x0800ff88   0x00000044   Code   RO         5829    i.rt_ms2tick        RTX_CM4.lib(rt_cmsis.o)
    0x0800ffcc   0x0800ffcc   0x0000007c   Code   RO         6489    i.rt_pop_req        RTX_CM4.lib(rt_system.o)
    0x08010048   0x08010048   0x00000020   Code   RO         6490    i.rt_psh_req        RTX_CM4.lib(rt_system.o)
    0x08010068   0x08010068   0x0000005c   Code   RO         6624    i.rt_psq_enq        RTX_CM4.lib(rt_list.o)
    0x080100c4   0x080100c4   0x00000048   Code   RO         6625    i.rt_put_dly        RTX_CM4.lib(rt_list.o)
    0x0801010c   0x0801010c   0x00000036   Code   RO         6626    i.rt_put_prio       RTX_CM4.lib(rt_list.o)
    0x08010142   0x08010142   0x00000002   PAD
    0x08010144   0x08010144   0x00000014   Code   RO         6627    i.rt_put_rdy_first  RTX_CM4.lib(rt_list.o)
    0x08010158   0x08010158   0x00000034   Code   RO         6628    i.rt_resort_prio    RTX_CM4.lib(rt_list.o)
    0x0801018c   0x0801018c   0x00000010   Code   RO         6908    i.rt_ret_regs       RTX_CM4.lib(hal_cm.o)
    0x0801019c   0x0801019c   0x0000000c   Code   RO         6909    i.rt_ret_val        RTX_CM4.lib(hal_cm.o)
    0x080101a8   0x080101a8   0x00000010   Code   RO         6910    i.rt_ret_val2       RTX_CM4.lib(hal_cm.o)
    0x080101b8   0x080101b8   0x00000028   Code   RO         6629    i.rt_rmv_dly        RTX_CM4.lib(rt_list.o)
    0x080101e0   0x080101e0   0x00000030   Code   RO         6630    i.rt_rmv_list       RTX_CM4.lib(rt_list.o)
    0x08010210   0x08010210   0x0000000c   Code   RO         6747    i.rt_sem_init       RTX_CM4.lib(rt_semaphore.o)
    0x0801021c   0x0801021c   0x00000034   Code   RO         6748    i.rt_sem_psh        RTX_CM4.lib(rt_semaphore.o)
    0x08010250   0x08010250   0x0000002a   Code   RO         6749    i.rt_sem_send       RTX_CM4.lib(rt_semaphore.o)
    0x0801027a   0x0801027a   0x00000002   PAD
    0x0801027c   0x0801027c   0x00000040   Code   RO         6750    i.rt_sem_wait       RTX_CM4.lib(rt_semaphore.o)
    0x080102bc   0x080102bc   0x00000024   Code   RO         6492    i.rt_stk_check      RTX_CM4.lib(rt_system.o)
    0x080102e0   0x080102e0   0x00000028   Code   RO         6403    i.rt_switch_req     RTX_CM4.lib(rt_task.o)
    0x08010308   0x08010308   0x000000cc   Code   RO         6404    i.rt_sys_init       RTX_CM4.lib(rt_task.o)
    0x080103d4   0x080103d4   0x00000078   Code   RO         6405    i.rt_sys_start      RTX_CM4.lib(rt_task.o)
    0x0801044c   0x0801044c   0x00000040   Code   RO         6494    i.rt_systick        RTX_CM4.lib(rt_system.o)
    0x0801048c   0x0801048c   0x00000012   Code   RO         5830    i.rt_tid2ptcb       RTX_CM4.lib(rt_cmsis.o)
    0x0801049e   0x0801049e   0x00000002   PAD
    0x080104a0   0x080104a0   0x00000034   Code   RO         5831    i.rt_timer_insert   RTX_CM4.lib(rt_cmsis.o)
    0x080104d4   0x080104d4   0x0000003c   Code   RO         5832    i.rt_timer_remove   RTX_CM4.lib(rt_cmsis.o)
    0x08010510   0x08010510   0x00000088   Code   RO         6406    i.rt_tsk_create     RTX_CM4.lib(rt_task.o)
    0x08010598   0x08010598   0x0000017c   Code   RO         6407    i.rt_tsk_delete     RTX_CM4.lib(rt_task.o)
    0x08010714   0x08010714   0x00000030   Code   RO         6408    i.rt_tsk_pass       RTX_CM4.lib(rt_task.o)
    0x08010744   0x08010744   0x0000007c   Code   RO         6409    i.rt_tsk_prio       RTX_CM4.lib(rt_task.o)
    0x080107c0   0x080107c0   0x00000010   Code   RO         6410    i.rt_tsk_self       RTX_CM4.lib(rt_task.o)
    0x080107d0   0x080107d0   0x000001bc   Code   RO          229    i.serial_report_data  serial.o
    0x0801098c   0x0801098c   0x0000002e   Code   RO          528    i.str_trim          utils.o
    0x080109ba   0x080109ba   0x00000012   Code   RO         5833    i.svcDelay          RTX_CM4.lib(rt_cmsis.o)
    0x080109cc   0x080109cc   0x00000070   Code   RO         5834    i.svcKernelInitialize  RTX_CM4.lib(rt_cmsis.o)
    0x08010a3c   0x08010a3c   0x00000048   Code   RO         5836    i.svcKernelStart    RTX_CM4.lib(rt_cmsis.o)
    0x08010a84   0x08010a84   0x00000038   Code   RO         5837    i.svcKernelSysTick  RTX_CM4.lib(rt_cmsis.o)
    0x08010abc   0x08010abc   0x00000042   Code   RO         5838    i.svcMailCreate     RTX_CM4.lib(rt_cmsis.o)
    0x08010afe   0x08010afe   0x00000024   Code   RO         5839    i.svcMessageCreate  RTX_CM4.lib(rt_cmsis.o)
    0x08010b22   0x08010b22   0x0000003a   Code   RO         5840    i.svcMessageGet     RTX_CM4.lib(rt_cmsis.o)
    0x08010b5c   0x08010b5c   0x00000036   Code   RO         5841    i.svcMessagePut     RTX_CM4.lib(rt_cmsis.o)
    0x08010b92   0x08010b92   0x00000024   Code   RO         5847    i.svcSemaphoreCreate  RTX_CM4.lib(rt_cmsis.o)
    0x08010bb6   0x08010bb6   0x00000028   Code   RO         5849    i.svcSemaphoreRelease  RTX_CM4.lib(rt_cmsis.o)
    0x08010bde   0x08010bde   0x00000032   Code   RO         5850    i.svcSemaphoreWait  RTX_CM4.lib(rt_cmsis.o)
    0x08010c10   0x08010c10   0x0000006c   Code   RO         5854    i.svcThreadCreate   RTX_CM4.lib(rt_cmsis.o)
    0x08010c7c   0x08010c7c   0x0000001c   Code   RO         5855    i.svcThreadGetId    RTX_CM4.lib(rt_cmsis.o)
    0x08010c98   0x08010c98   0x00000038   Code   RO         5858    i.svcThreadTerminate  RTX_CM4.lib(rt_cmsis.o)
    0x08010cd0   0x08010cd0   0x0000000a   Code   RO         5859    i.svcThreadYield    RTX_CM4.lib(rt_cmsis.o)
    0x08010cda   0x08010cda   0x00000018   Code   RO         5860    i.svcTimerCall      RTX_CM4.lib(rt_cmsis.o)
    0x08010cf2   0x08010cf2   0x00000002   PAD
    0x08010cf4   0x08010cf4   0x00000038   Code   RO         5861    i.svcTimerCreate    RTX_CM4.lib(rt_cmsis.o)
    0x08010d2c   0x08010d2c   0x00000064   Code   RO         5863    i.svcTimerStart     RTX_CM4.lib(rt_cmsis.o)
    0x08010d90   0x08010d90   0x00000058   Code   RO         5865    i.sysMailAlloc      RTX_CM4.lib(rt_cmsis.o)
    0x08010de8   0x08010de8   0x00000060   Code   RO         5866    i.sysMailFree       RTX_CM4.lib(rt_cmsis.o)
    0x08010e48   0x08010e48   0x0000005c   Code   RO         5869    i.sysTimerTick      RTX_CM4.lib(rt_cmsis.o)
    0x08010ea4   0x08010ea4   0x00000198   Code   RO          377    i.vIRLedTask        power.o
    0x0801103c   0x0801103c   0x00000074   Code   RO          690    i.vJ1587HandlerTask  digital.o
    0x080110b0   0x080110b0   0x000000a0   Code   RO          691    i.vJ1587RequestTask  digital.o
    0x08011150   0x08011150   0x000000d0   Code   RO          832    i.vJ1939Task        canbus.o
    0x08011220   0x08011220   0x00000248   Code   RO          378    i.vPowerTask        power.o
    0x08011468   0x08011468   0x00000094   Code   RO          230    i.vSerialReceiver   serial.o
    0x080114fc   0x080114fc   0x000001a8   Code   RO          231    i.vSerialTask       serial.o
    0x080116a4   0x080116a4   0x00000014   Code   RO          232    i.vSerialTransfer   serial.o
    0x080116b8   0x080116b8   0x000000b8   Code   RO          692    i.vUART4Receiver    digital.o
    0x08011770   0x08011770   0x00000124   Code   RO          693    i.vUSART2Receiver   digital.o
    0x08011894   0x08011894   0x00000048   Data   RO          237    .constdata          serial.o
    0x080118dc   0x080118dc   0x00000020   Data   RO          381    .constdata          power.o
    0x080118fc   0x080118fc   0x00000500   Data   RO          531    .constdata          utils.o
    0x08011dfc   0x08011dfc   0x00000064   Data   RO          700    .constdata          digital.o
    0x08011e60   0x08011e60   0x00000010   Data   RO          835    .constdata          canbus.o
    0x08011e70   0x08011e70   0x00000010   Data   RO          951    .constdata          interface.o
    0x08011e80   0x08011e80   0x00000002   Data   RO         5665    .constdata          rtx_conf_cm.o
    0x08011e82   0x08011e82   0x00000002   PAD
    0x08011e84   0x08011e84   0x00000004   Data   RO         5666    .constdata          rtx_conf_cm.o
    0x08011e88   0x08011e88   0x00000004   Data   RO         5667    .constdata          rtx_conf_cm.o
    0x08011e8c   0x08011e8c   0x00000002   Data   RO         5669    .constdata          rtx_conf_cm.o
    0x08011e8e   0x08011e8e   0x00000002   Data   RO         5670    .constdata          rtx_conf_cm.o
    0x08011e90   0x08011e90   0x00000004   Data   RO         5671    .constdata          rtx_conf_cm.o
    0x08011e94   0x08011e94   0x00000001   Data   RO         5672    .constdata          rtx_conf_cm.o
    0x08011e95   0x08011e95   0x00000003   PAD
    0x08011e98   0x08011e98   0x00000020   Data   RO         5673    .constdata          rtx_conf_cm.o
    0x08011eb8   0x08011eb8   0x00000002   Data   RO         5674    .constdata          rtx_conf_cm.o
    0x08011eba   0x08011eba   0x00000002   PAD
    0x08011ebc   0x08011ebc   0x00000004   Data   RO         5675    .constdata          rtx_conf_cm.o
    0x08011ec0   0x08011ec0   0x00000004   Data   RO         5676    .constdata          rtx_conf_cm.o
    0x08011ec4   0x08011ec4   0x00000001   Data   RO         5677    .constdata          rtx_conf_cm.o
    0x08011ec5   0x08011ec5   0x00000003   PAD
    0x08011ec8   0x08011ec8   0x00000010   Data   RO         5678    .constdata          rtx_conf_cm.o
    0x08011ed8   0x08011ed8   0x00000008   Data   RO         5679    .constdata          rtx_conf_cm.o
    0x08011ee0   0x08011ee0   0x00000002   Data   RO         5680    .constdata          rtx_conf_cm.o
    0x08011ee2   0x08011ee2   0x00000040   Data   RO         7361    .constdata          mc_w.l(ctype_c.o)
    0x08011f22   0x08011f22   0x00000002   PAD
    0x08011f24   0x08011f24   0x0000004c   Data   RO          238    .conststring        serial.o
    0x08011f70   0x08011f70   0x00000020   Data   RO         7365    Region$$Table       anon$$obj.o


    Execution Region RW_IRAM1 (Exec base: 0x20000000, Load base: 0x08011f90, Size: 0x00008218, Max: 0x0000a000, ABSOLUTE, COMPRESSED[0x00000040])

    Exec Addr    Load Addr    Size         Type   Attr      Idx    E Section Name        Object

    0x20000000   COMPRESSED   0x00000008   Data   RW          239    .data               serial.o
    0x20000008   COMPRESSED   0x0000002a   Data   RW          240    .data               serial.o
    0x20000032   COMPRESSED   0x00000002   PAD
    0x20000034   COMPRESSED   0x00000008   Data   RW          241    .data               serial.o
    0x2000003c   COMPRESSED   0x0000001c   Data   RW          382    .data               power.o
    0x20000058   COMPRESSED   0x0000003c   Data   RW          701    .data               digital.o
    0x20000094   COMPRESSED   0x00000008   Data   RW          702    .data               digital.o
    0x2000009c   COMPRESSED   0x00000004   PAD
    0x200000a0   COMPRESSED   0x00000028   Data   RW          836    .data               canbus.o
    0x200000c8   COMPRESSED   0x00000018   Data   RW          952    .data               interface.o
    0x200000e0   COMPRESSED   0x00000030   Data   RW         3723    .data               stm32f30x_rcc.o
    0x20000110   COMPRESSED   0x00000004   Data   RW         5682    .data               rtx_conf_cm.o
    0x20000114   COMPRESSED   0x00000004   Data   RW         5683    .data               rtx_conf_cm.o
    0x20000118   COMPRESSED   0x00000004   Data   RW         5684    .data               rtx_conf_cm.o
    0x2000011c   COMPRESSED   0x00000008   Data   RW         5872    .data               RTX_CM4.lib(rt_cmsis.o)
    0x20000124   COMPRESSED   0x00000008   Data   RW         6412    .data               RTX_CM4.lib(rt_task.o)
    0x2000012c   COMPRESSED   0x00000008   Data   RW         6497    .data               RTX_CM4.lib(rt_system.o)
    0x20000134   COMPRESSED   0x00000004   Data   RW         6791    .data               RTX_CM4.lib(rt_time.o)
    0x20000138   COMPRESSED   0x00000001   Data   RW         6911    .data               RTX_CM4.lib(hal_cm.o)
    0x20000139   COMPRESSED   0x00000003   PAD
    0x2000013c   COMPRESSED   0x00000008   Data   RW         6959    .data               RTX_CM4.lib(rt_robin.o)
    0x20000144   COMPRESSED   0x00000004   Data   RW         7327    .data               mc_w.l(errno.o)
    0x20000148        -       0x00000810   Zero   RW          233    .bss                serial.o
    0x20000958        -       0x0000001c   Zero   RW          234    .bss                serial.o
    0x20000974        -       0x00000670   Zero   RW          235    .bss                serial.o
    0x20000fe4        -       0x00000618   Zero   RW          236    .bss                serial.o
    0x200015fc        -       0x00000162   Zero   RW          379    .bss                power.o
    0x2000175e   COMPRESSED   0x00000002   PAD
    0x20001760        -       0x00000210   Zero   RW          694    .bss                digital.o
    0x20001970        -       0x00000810   Zero   RW          695    .bss                digital.o
    0x20002180        -       0x00000024   Zero   RW          696    .bss                digital.o
    0x200021a4        -       0x00000018   Zero   RW          697    .bss                digital.o
    0x200021bc        -       0x000003d4   Zero   RW          698    .bss                digital.o
    0x20002590        -       0x00000a20   Zero   RW          699    .bss                digital.o
    0x20002fb0        -       0x000001e0   Zero   RW          833    .bss                canbus.o
    0x20003190        -       0x00000018   Zero   RW          949    .bss                interface.o
    0x200031a8        -       0x00000018   Zero   RW          950    .bss                interface.o
    0x200031c0        -       0x00000020   Zero   RW         5659    .bss                rtx_conf_cm.o
    0x200031e0        -       0x00000380   Zero   RW         5660    .bss                rtx_conf_cm.o
    0x20003560        -       0x00001c10   Zero   RW         5661    .bss                rtx_conf_cm.o
    0x20005170        -       0x000029f8   Zero   RW         5662    .bss                rtx_conf_cm.o
    0x20007b68        -       0x00000204   Zero   RW         5663    .bss                rtx_conf_cm.o
    0x20007d6c        -       0x00000044   Zero   RW         5664    .bss                rtx_conf_cm.o
    0x20007db0        -       0x00000034   Zero   RW         6411    .bss                RTX_CM4.lib(rt_task.o)
    0x20007de4        -       0x00000030   Zero   RW         6631    .bss                RTX_CM4.lib(rt_list.o)
    0x20007e14   COMPRESSED   0x00000004   PAD
    0x20007e18        -       0x00000400   Zero   RW         5723    STACK               startup_stm32f302xc.o


==============================================================================

Image component sizes


      Code (inc. data)   RO Data    RW Data    ZI Data      Debug   Object Name

      1772        172         16         40        480      10284   canbus.o
      2912        380        100         68       6224      47543   digital.o
       432         32          0          0          0      35204   flash.o
      1368        212         16         24         48      11840   interface.o
       124         18          0          0          0     398569   main.o
      4322        366         32         28        354      48088   power.o
       146         88         88         12      19440       7840   rtx_conf_cm.o
      2710        412        148         58       5300      46619   serial.o
        36          8        392          0       1024        856   startup_stm32f302xc.o
       514         18          0          0          0       9909   stm32f30x_adc.o
      1150         20          0          0          0       8496   stm32f30x_can.o
       380         26          0          0          0       5759   stm32f30x_dma.o
       312         18          0          0          0       2448   stm32f30x_exti.o
       270         42          0          0          0       5211   stm32f30x_flash.o
       170          0          0          0          0       3879   stm32f30x_gpio.o
       192        120          0          0          0      32968   stm32f30x_it.o
        16          6          0          0          0        541   stm32f30x_iwdg.o
       100          6          0          0          0       1188   stm32f30x_misc.o
       916         50          0         48          0       7387   stm32f30x_rcc.o
        40          6          0          0          0        724   stm32f30x_syscfg.o
       680        110          0          0          0       9441   stm32f30x_tim.o
       466         36          0          0          0       7363   stm32f30x_usart.o
       260         32          0          0          0       1677   system_stm32f3xx.o
        30          0          0          0          0        490   thread.o
       292         12       1280          0          0       5278   utils.o

    ----------------------------------------------------------------------
     19638       2190       2114        284      32872     709602   Object Totals
         0          0         32          0          0          0   (incl. Generated)
        28          0         10          6          2          0   (incl. Padding)

    ----------------------------------------------------------------------

      Code (inc. data)   RO Data    RW Data    ZI Data      Debug   Library Member Name

       268         24          0          1          0       4440   hal_cm.o
       408         34          0          0          0        812   hal_cm4.o
      2322        248          0          8          0      55112   rt_cmsis.o
        80          4          0          0          0        697   rt_event.o
       566         44          0          0         48       9168   rt_list.o
       706         14          0          0          0       5055   rt_mailbox.o
       140          0          0          0          0       2033   rt_membox.o
       128          0          0          0          0       2411   rt_memory.o
        96         22          0          8          0       1230   rt_robin.o
       186         10          0          0          0       3102   rt_semaphore.o
       334         64          0          8          0       7375   rt_system.o
      1264        184          0          8         52      10551   rt_task.o
         6          0          0          4          0        684   rt_time.o
         4          4          0          0          0        196   svc_table.o
        56         12          0          0          0        132   atof.o
        56          8          0          0          0         84   __0sscanf.o
        86          0          0          0          0          0   __dczerorl2.o
        28          0          0          0          0         68   _chval.o
       816          6          0          0          0        112   _scanf.o
       332          0          0          0          0         96   _scanf_int.o
        64          0          0          0          0         84   _sgetc.o
        40          6         64          0          0         68   ctype_c.o
         0          0          0          0          0          0   entry.o
         0          0          0          0          0          0   entry10a.o
         0          0          0          0          0          0   entry11a.o
         4          0          0          0          0          0   entry12b.o
         8          4          0          0          0          0   entry2.o
         4          0          0          0          0          0   entry5.o
         0          0          0          0          0          0   entry7b.o
         0          0          0          0          0          0   entry8b.o
        24         12          0          4          0        136   errno.o
        30          0          0          0          0          0   handlers.o
        36          8          0          0          0         68   init.o
        10          0          0          0          0         68   isspace_c.o
         0          0          0          0          0          0   iusefp.o
        30          0          0          0          0         68   llshl.o
        36          0          0          0          0         68   llsshr.o
        32          0          0          0          0         68   llushr.o
        36          0          0          0          0         68   memcpya.o
        36          0          0          0          0        108   memseta.o
        40          8          0          0          0         84   scanf_char.o
       878         12          0          0          0        216   scanf_fp.o
        14          0          0          0          0         68   strlen.o
        30          0          0          0          0         80   strncmp.o
       156         12          0          0          0        120   strtod.o
        98          0          0          0          0         92   uldiv.o
        48          0          0          0          0         68   cdcmple.o
        56          0          0          0          0         88   d2f.o
       334          0          0          0          0        148   dadd.o
       222          0          0          0          0        100   ddiv.o
       186          0          0          0          0        176   depilogue.o
        50          0          0          0          0         76   dfixui.o
        34          0          0          0          0         76   dflti.o
        26          0          0          0          0         76   dfltui.o
        24          0          0          0          0         76   dfltul.o
       228          0          0          0          0         96   dmul.o
       110          0          0          0          0        168   fepilogue.o

    ----------------------------------------------------------------------
     10838        740         66         44        104     105970   Library Totals
        32          0          2          3          4          0   (incl. Padding)

    ----------------------------------------------------------------------

      Code (inc. data)   RO Data    RW Data    ZI Data      Debug   Library Name

      6508        652          0         37        100     102866   RTX_CM4.lib
        56         12          0          0          0        132   m_wm.l
      2924         76         64          4          0       1824   mc_w.l
      1318          0          0          0          0       1148   mf_w.l

    ----------------------------------------------------------------------
     10838        740         66         44        104     105970   Library Totals

    ----------------------------------------------------------------------

==============================================================================


      Code (inc. data)   RO Data    RW Data    ZI Data      Debug   

     30476       2930       2180        328      32976     785548   Grand Totals
     30476       2930       2180         64      32976     785548   ELF Image Totals (compressed)
     30476       2930       2180         64          0          0   ROM Totals

==============================================================================

    Total RO  Size (Code + RO Data)                32656 (  31.89kB)
    Total RW  Size (RW Data + ZI Data)             33304 (  32.52kB)
    Total ROM Size (Code + RO Data + RW Data)      32720 (  31.95kB)

==============================================================================

